Archive member included because of file (symbol)

../../pic32/compiler/pic32-tools/bin/../lib/gcc/pic32mx/4.5.2/../../../../pic32mx/lib\libm.a(lib_a-s_cos.o)
                              obj/matrix4.o (cos)
../../pic32/compiler/pic32-tools/bin/../lib/gcc/pic32mx/4.5.2/../../../../pic32mx/lib\libm.a(lib_a-sf_cos.o)
                              obj/matrix4.o (cosf)
../../pic32/compiler/pic32-tools/bin/../lib/gcc/pic32mx/4.5.2/../../../../pic32mx/lib\libm.a(lib_a-sf_sin.o)
                              obj/matrix4.o (sinf)
../../pic32/compiler/pic32-tools/bin/../lib/gcc/pic32mx/4.5.2/../../../../pic32mx/lib\libm.a(lib_a-s_sin.o)
                              obj/matrix4.o (sin)
../../pic32/compiler/pic32-tools/bin/../lib/gcc/pic32mx/4.5.2/../../../../pic32mx/lib\libm.a(lib_a-s_tan.o)
                              obj/matrix4.o (tan)
../../pic32/compiler/pic32-tools/bin/../lib/gcc/pic32mx/4.5.2/../../../../pic32mx/lib\libm.a(lib_a-ef_rem_pio2.o)
                              ../../pic32/compiler/pic32-tools/bin/../lib/gcc/pic32mx/4.5.2/../../../../pic32mx/lib\libm.a(lib_a-sf_cos.o) (__ieee754_rem_pio2f)
../../pic32/compiler/pic32-tools/bin/../lib/gcc/pic32mx/4.5.2/../../../../pic32mx/lib\libm.a(lib_a-e_rem_pio2.o)
                              ../../pic32/compiler/pic32-tools/bin/../lib/gcc/pic32mx/4.5.2/../../../../pic32mx/lib\libm.a(lib_a-s_cos.o) (__ieee754_rem_pio2)
../../pic32/compiler/pic32-tools/bin/../lib/gcc/pic32mx/4.5.2/../../../../pic32mx/lib\libm.a(lib_a-k_cos.o)
                              ../../pic32/compiler/pic32-tools/bin/../lib/gcc/pic32mx/4.5.2/../../../../pic32mx/lib\libm.a(lib_a-s_cos.o) (__kernel_cos)
../../pic32/compiler/pic32-tools/bin/../lib/gcc/pic32mx/4.5.2/../../../../pic32mx/lib\libm.a(lib_a-kf_cos.o)
                              ../../pic32/compiler/pic32-tools/bin/../lib/gcc/pic32mx/4.5.2/../../../../pic32mx/lib\libm.a(lib_a-sf_cos.o) (__kernel_cosf)
../../pic32/compiler/pic32-tools/bin/../lib/gcc/pic32mx/4.5.2/../../../../pic32mx/lib\libm.a(lib_a-kf_rem_pio2.o)
                              ../../pic32/compiler/pic32-tools/bin/../lib/gcc/pic32mx/4.5.2/../../../../pic32mx/lib\libm.a(lib_a-ef_rem_pio2.o) (__kernel_rem_pio2f)
../../pic32/compiler/pic32-tools/bin/../lib/gcc/pic32mx/4.5.2/../../../../pic32mx/lib\libm.a(lib_a-kf_sin.o)
                              ../../pic32/compiler/pic32-tools/bin/../lib/gcc/pic32mx/4.5.2/../../../../pic32mx/lib\libm.a(lib_a-sf_cos.o) (__kernel_sinf)
../../pic32/compiler/pic32-tools/bin/../lib/gcc/pic32mx/4.5.2/../../../../pic32mx/lib\libm.a(lib_a-k_rem_pio2.o)
                              ../../pic32/compiler/pic32-tools/bin/../lib/gcc/pic32mx/4.5.2/../../../../pic32mx/lib\libm.a(lib_a-e_rem_pio2.o) (__kernel_rem_pio2)
../../pic32/compiler/pic32-tools/bin/../lib/gcc/pic32mx/4.5.2/../../../../pic32mx/lib\libm.a(lib_a-k_sin.o)
                              ../../pic32/compiler/pic32-tools/bin/../lib/gcc/pic32mx/4.5.2/../../../../pic32mx/lib\libm.a(lib_a-s_cos.o) (__kernel_sin)
../../pic32/compiler/pic32-tools/bin/../lib/gcc/pic32mx/4.5.2/../../../../pic32mx/lib\libm.a(lib_a-k_tan.o)
                              ../../pic32/compiler/pic32-tools/bin/../lib/gcc/pic32mx/4.5.2/../../../../pic32mx/lib\libm.a(lib_a-s_tan.o) (__kernel_tan)
../../pic32/compiler/pic32-tools/bin/../lib/gcc/pic32mx/4.5.2/../../../../pic32mx/lib\libm.a(lib_a-s_fabs.o)
                              ../../pic32/compiler/pic32-tools/bin/../lib/gcc/pic32mx/4.5.2/../../../../pic32mx/lib\libm.a(lib_a-e_rem_pio2.o) (fabs)
../../pic32/compiler/pic32-tools/bin/../lib/gcc/pic32mx/4.5.2/../../../../pic32mx/lib\libm.a(lib_a-sf_fabs.o)
                              ../../pic32/compiler/pic32-tools/bin/../lib/gcc/pic32mx/4.5.2/../../../../pic32mx/lib\libm.a(lib_a-ef_rem_pio2.o) (fabsf)
../../pic32/compiler/pic32-tools/bin/../lib/gcc/pic32mx/4.5.2/../../../../pic32mx/lib\libm.a(lib_a-sf_floor.o)
                              ../../pic32/compiler/pic32-tools/bin/../lib/gcc/pic32mx/4.5.2/../../../../pic32mx/lib\libm.a(lib_a-kf_rem_pio2.o) (floorf)
../../pic32/compiler/pic32-tools/bin/../lib/gcc/pic32mx/4.5.2/../../../../pic32mx/lib\libm.a(lib_a-s_floor.o)
                              ../../pic32/compiler/pic32-tools/bin/../lib/gcc/pic32mx/4.5.2/../../../../pic32mx/lib\libm.a(lib_a-k_rem_pio2.o) (floor)
../../pic32/compiler/pic32-tools/bin/../lib/gcc/pic32mx/4.5.2/../../../../pic32mx/lib\libm.a(lib_a-sf_scalbn.o)
                              ../../pic32/compiler/pic32-tools/bin/../lib/gcc/pic32mx/4.5.2/../../../../pic32mx/lib\libm.a(lib_a-kf_rem_pio2.o) (scalbnf)
../../pic32/compiler/pic32-tools/bin/../lib/gcc/pic32mx/4.5.2/../../../../pic32mx/lib\libm.a(lib_a-s_scalbn.o)
                              ../../pic32/compiler/pic32-tools/bin/../lib/gcc/pic32mx/4.5.2/../../../../pic32mx/lib\libm.a(lib_a-k_rem_pio2.o) (scalbn)
../../pic32/compiler/pic32-tools/bin/../lib/gcc/pic32mx/4.5.2/../../../../pic32mx/lib\libm.a(lib_a-s_copysign.o)
                              ../../pic32/compiler/pic32-tools/bin/../lib/gcc/pic32mx/4.5.2/../../../../pic32mx/lib\libm.a(lib_a-s_scalbn.o) (copysign)
../../pic32/compiler/pic32-tools/bin/../lib/gcc/pic32mx/4.5.2/../../../../pic32mx/lib\libm.a(lib_a-sf_copysign.o)
                              ../../pic32/compiler/pic32-tools/bin/../lib/gcc/pic32mx/4.5.2/../../../../pic32mx/lib\libm.a(lib_a-sf_scalbn.o) (copysignf)
../../pic32/compiler/pic32-tools/bin/../lib/gcc/pic32mx/4.5.2\libgcc.a(_divdi3.o)
                              obj/matrix4.o (__divdi3)
../../pic32/compiler/pic32-tools/bin/../lib/gcc/pic32mx/4.5.2\libgcc.a(addsf3.o)
                              obj/matrix4.o (__addsf3)
../../pic32/compiler/pic32-tools/bin/../lib/gcc/pic32mx/4.5.2\libgcc.a(eqsf2.o)
                              ../../pic32/compiler/pic32-tools/bin/../lib/gcc/pic32mx/4.5.2/../../../../pic32mx/lib\libm.a(lib_a-ef_rem_pio2.o) (__eqsf2)
../../pic32/compiler/pic32-tools/bin/../lib/gcc/pic32mx/4.5.2\libgcc.a(gesf2.o)
                              ../../pic32/compiler/pic32-tools/bin/../lib/gcc/pic32mx/4.5.2/../../../../pic32mx/lib\libm.a(lib_a-kf_rem_pio2.o) (__gesf2)
../../pic32/compiler/pic32-tools/bin/../lib/gcc/pic32mx/4.5.2\libgcc.a(mulsf3.o)
                              obj/matrix4.o (__mulsf3)
../../pic32/compiler/pic32-tools/bin/../lib/gcc/pic32mx/4.5.2\libgcc.a(subsf3.o)
                              ../../pic32/compiler/pic32-tools/bin/../lib/gcc/pic32mx/4.5.2/../../../../pic32mx/lib\libm.a(lib_a-sf_cos.o) (__subsf3)
../../pic32/compiler/pic32-tools/bin/../lib/gcc/pic32mx/4.5.2\libgcc.a(fixsfsi.o)
                              obj/matrix4.o (__fixsfsi)
../../pic32/compiler/pic32-tools/bin/../lib/gcc/pic32mx/4.5.2\libgcc.a(floatsisf.o)
                              obj/matrix4.o (__floatsisf)
../../pic32/compiler/pic32-tools/bin/../lib/gcc/pic32mx/4.5.2\libgcc.a(floatunsisf.o)
                              obj/matrix4.o (__floatunsisf)
../../pic32/compiler/pic32-tools/bin/../lib/gcc/pic32mx/4.5.2\libgcc.a(adddf3.o)
                              obj/matrix4.o (__adddf3)
../../pic32/compiler/pic32-tools/bin/../lib/gcc/pic32mx/4.5.2\libgcc.a(divdf3.o)
                              obj/matrix4.o (__divdf3)
../../pic32/compiler/pic32-tools/bin/../lib/gcc/pic32mx/4.5.2\libgcc.a(eqdf2.o)
                              ../../pic32/compiler/pic32-tools/bin/../lib/gcc/pic32mx/4.5.2/../../../../pic32mx/lib\libm.a(lib_a-e_rem_pio2.o) (__eqdf2)
../../pic32/compiler/pic32-tools/bin/../lib/gcc/pic32mx/4.5.2\libgcc.a(gedf2.o)
                              ../../pic32/compiler/pic32-tools/bin/../lib/gcc/pic32mx/4.5.2/../../../../pic32mx/lib\libm.a(lib_a-k_rem_pio2.o) (__gedf2)
../../pic32/compiler/pic32-tools/bin/../lib/gcc/pic32mx/4.5.2\libgcc.a(muldf3.o)
                              obj/matrix4.o (__muldf3)
../../pic32/compiler/pic32-tools/bin/../lib/gcc/pic32mx/4.5.2\libgcc.a(subdf3.o)
                              ../../pic32/compiler/pic32-tools/bin/../lib/gcc/pic32mx/4.5.2/../../../../pic32mx/lib\libm.a(lib_a-s_cos.o) (__subdf3)
../../pic32/compiler/pic32-tools/bin/../lib/gcc/pic32mx/4.5.2\libgcc.a(fixdfsi.o)
                              obj/matrix4.o (__fixdfsi)
../../pic32/compiler/pic32-tools/bin/../lib/gcc/pic32mx/4.5.2\libgcc.a(floatsidf.o)
                              obj/matrix4.o (__floatsidf)
../../pic32/compiler/pic32-tools/bin/../lib/gcc/pic32mx/4.5.2\libgcc.a(floatunsidf.o)
                              obj/matrix4.o (__floatunsidf)
../../pic32/compiler/pic32-tools/bin/../lib/gcc/pic32mx/4.5.2\libgcc.a(extendsfdf2.o)
                              obj/matrix4.o (__extendsfdf2)
../../pic32/compiler/pic32-tools/bin/../lib/gcc/pic32mx/4.5.2\libgcc.a(truncdfsf2.o)
                              obj/matrix4.o (__truncdfsf2)
../../pic32/compiler/pic32-tools/bin/../lib/gcc/pic32mx/4.5.2/../../../../pic32mx/lib\libc.a(lib_a-assert.o)
                              obj/maze.o (__assert_func)
../../pic32/compiler/pic32-tools/bin/../lib/gcc/pic32mx/4.5.2/../../../../pic32mx/lib\libc.a(lib_a-fiprintf.o)
                              ../../pic32/compiler/pic32-tools/bin/../lib/gcc/pic32mx/4.5.2/../../../../pic32mx/lib\libc.a(lib_a-assert.o) (fiprintf)
../../pic32/compiler/pic32-tools/bin/../lib/gcc/pic32mx/4.5.2/../../../../pic32mx/lib\libc.a(lib_a-impure.o)
                              ../../pic32/compiler/pic32-tools/bin/../lib/gcc/pic32mx/4.5.2/../../../../pic32mx/lib\libc.a(lib_a-assert.o) (_impure_ptr)
../../pic32/compiler/pic32-tools/bin/../lib/gcc/pic32mx/4.5.2/../../../../pic32mx/lib\libc.a(lib_a-printf.o)
                              obj/vector2.o (printf)
../../pic32/compiler/pic32-tools/bin/../lib/gcc/pic32mx/4.5.2/../../../../pic32mx/lib\libc.a(lib_a-vfiprintf.o)
                              ../../pic32/compiler/pic32-tools/bin/../lib/gcc/pic32mx/4.5.2/../../../../pic32mx/lib\libc.a(lib_a-fiprintf.o) (_vfiprintf_r)
../../pic32/compiler/pic32-tools/bin/../lib/gcc/pic32mx/4.5.2/../../../../pic32mx/lib\libc.a(lib_a-vfprintf.o)
                              ../../pic32/compiler/pic32-tools/bin/../lib/gcc/pic32mx/4.5.2/../../../../pic32mx/lib\libc.a(lib_a-printf.o) (_vfprintf_r)
../../pic32/compiler/pic32-tools/bin/../lib/gcc/pic32mx/4.5.2/../../../../pic32mx/lib\libc.a(lib_a-wsetup.o)
                              ../../pic32/compiler/pic32-tools/bin/../lib/gcc/pic32mx/4.5.2/../../../../pic32mx/lib\libc.a(lib_a-vfiprintf.o) (__swsetup_r)
../../pic32/compiler/pic32-tools/bin/../lib/gcc/pic32mx/4.5.2/../../../../pic32mx/lib\libc.a(lib_a-abort.o)
                              ../../pic32/compiler/pic32-tools/bin/../lib/gcc/pic32mx/4.5.2/../../../../pic32mx/lib\libc.a(lib_a-assert.o) (abort)
../../pic32/compiler/pic32-tools/bin/../lib/gcc/pic32mx/4.5.2/../../../../pic32mx/lib\libc.a(lib_a-dtoa.o)
                              ../../pic32/compiler/pic32-tools/bin/../lib/gcc/pic32mx/4.5.2/../../../../pic32mx/lib\libc.a(lib_a-vfprintf.o) (_dtoa_r)
../../pic32/compiler/pic32-tools/bin/../lib/gcc/pic32mx/4.5.2/../../../../pic32mx/lib\libc.a(lib_a-fflush.o)
                              ../../pic32/compiler/pic32-tools/bin/../lib/gcc/pic32mx/4.5.2/../../../../pic32mx/lib\libc.a(lib_a-vfiprintf.o) (_fflush_r)
../../pic32/compiler/pic32-tools/bin/../lib/gcc/pic32mx/4.5.2/../../../../pic32mx/lib\libc.a(lib_a-findfp.o)
                              ../../pic32/compiler/pic32-tools/bin/../lib/gcc/pic32mx/4.5.2/../../../../pic32mx/lib\libc.a(lib_a-vfiprintf.o) (__sinit)
../../pic32/compiler/pic32-tools/bin/../lib/gcc/pic32mx/4.5.2/../../../../pic32mx/lib\libc.a(lib_a-fputwc.o)
                              ../../pic32/compiler/pic32-tools/bin/../lib/gcc/pic32mx/4.5.2/../../../../pic32mx/lib\libc.a(lib_a-vfiprintf.o) (_fputwc_r)
../../pic32/compiler/pic32-tools/bin/../lib/gcc/pic32mx/4.5.2/../../../../pic32mx/lib\libc.a(lib_a-freer.o)
                              ../../pic32/compiler/pic32-tools/bin/../lib/gcc/pic32mx/4.5.2/../../../../pic32mx/lib\libc.a(lib_a-wsetup.o) (_free_r)
../../pic32/compiler/pic32-tools/bin/../lib/gcc/pic32mx/4.5.2/../../../../pic32mx/lib\libc.a(lib_a-fvwrite.o)
                              ../../pic32/compiler/pic32-tools/bin/../lib/gcc/pic32mx/4.5.2/../../../../pic32mx/lib\libc.a(lib_a-vfiprintf.o) (__sfvwrite_r)
../../pic32/compiler/pic32-tools/bin/../lib/gcc/pic32mx/4.5.2/../../../../pic32mx/lib\libc.a(lib_a-fwalk.o)
                              ../../pic32/compiler/pic32-tools/bin/../lib/gcc/pic32mx/4.5.2/../../../../pic32mx/lib\libc.a(lib_a-findfp.o) (_fwalk)
../../pic32/compiler/pic32-tools/bin/../lib/gcc/pic32mx/4.5.2/../../../../pic32mx/lib\libc.a(lib_a-locale.o)
                              ../../pic32/compiler/pic32-tools/bin/../lib/gcc/pic32mx/4.5.2/../../../../pic32mx/lib\libc.a(lib_a-fputwc.o) (__locale_mb_cur_max)
../../pic32/compiler/pic32-tools/bin/../lib/gcc/pic32mx/4.5.2/../../../../pic32mx/lib\libc.a(lib_a-makebuf.o)
                              ../../pic32/compiler/pic32-tools/bin/../lib/gcc/pic32mx/4.5.2/../../../../pic32mx/lib\libc.a(lib_a-wsetup.o) (__smakebuf_r)
../../pic32/compiler/pic32-tools/bin/../lib/gcc/pic32mx/4.5.2/../../../../pic32mx/lib\libc.a(lib_a-mallocr.o)
                              ../../pic32/compiler/pic32-tools/bin/../lib/gcc/pic32mx/4.5.2/../../../../pic32mx/lib\libc.a(lib_a-findfp.o) (_malloc_r)
../../pic32/compiler/pic32-tools/bin/../lib/gcc/pic32mx/4.5.2/../../../../pic32mx/lib\libc.a(lib_a-memchr.o)
                              ../../pic32/compiler/pic32-tools/bin/../lib/gcc/pic32mx/4.5.2/../../../../pic32mx/lib\libc.a(lib_a-vfiprintf.o) (memchr)
../../pic32/compiler/pic32-tools/bin/../lib/gcc/pic32mx/4.5.2/../../../../pic32mx/lib\libc.a(lib_a-memcpy.o)
                              ../../pic32/compiler/pic32-tools/bin/../lib/gcc/pic32mx/4.5.2/../../../../pic32mx/lib\libc.a(lib_a-dtoa.o) (memcpy)
../../pic32/compiler/pic32-tools/bin/../lib/gcc/pic32mx/4.5.2/../../../../pic32mx/lib\libc.a(lib_a-memmove.o)
                              ../../pic32/compiler/pic32-tools/bin/../lib/gcc/pic32mx/4.5.2/../../../../pic32mx/lib\libc.a(lib_a-fvwrite.o) (memmove)
../../pic32/compiler/pic32-tools/bin/../lib/gcc/pic32mx/4.5.2/../../../../pic32mx/lib\libc.a(lib_a-memset.o)
                              ../../pic32/compiler/pic32-tools/bin/../lib/gcc/pic32mx/4.5.2/../../../../pic32mx/lib\libc.a(lib_a-findfp.o) (memset)
../../pic32/compiler/pic32-tools/bin/../lib/gcc/pic32mx/4.5.2/../../../../pic32mx/lib\libc.a(lib_a-mlock.o)
                              ../../pic32/compiler/pic32-tools/bin/../lib/gcc/pic32mx/4.5.2/../../../../pic32mx/lib\libc.a(lib_a-freer.o) (__malloc_lock)
../../pic32/compiler/pic32-tools/bin/../lib/gcc/pic32mx/4.5.2/../../../../pic32mx/lib\libc.a(lib_a-mprec.o)
                              ../../pic32/compiler/pic32-tools/bin/../lib/gcc/pic32mx/4.5.2/../../../../pic32mx/lib\libc.a(lib_a-dtoa.o) (_Balloc)
../../pic32/compiler/pic32-tools/bin/../lib/gcc/pic32mx/4.5.2/../../../../pic32mx/lib\libc.a(lib_a-reallocr.o)
                              ../../pic32/compiler/pic32-tools/bin/../lib/gcc/pic32mx/4.5.2/../../../../pic32mx/lib\libc.a(lib_a-fvwrite.o) (_realloc_r)
../../pic32/compiler/pic32-tools/bin/../lib/gcc/pic32mx/4.5.2/../../../../pic32mx/lib\libc.a(lib_a-sbrkr.o)
                              ../../pic32/compiler/pic32-tools/bin/../lib/gcc/pic32mx/4.5.2/../../../../pic32mx/lib\libc.a(lib_a-freer.o) (_sbrk_r)
../../pic32/compiler/pic32-tools/bin/../lib/gcc/pic32mx/4.5.2/../../../../pic32mx/lib\libc.a(lib_a-s_fpclassify.o)
                              ../../pic32/compiler/pic32-tools/bin/../lib/gcc/pic32mx/4.5.2/../../../../pic32mx/lib\libc.a(lib_a-vfprintf.o) (__fpclassifyd)
../../pic32/compiler/pic32-tools/bin/../lib/gcc/pic32mx/4.5.2/../../../../pic32mx/lib\libc.a(lib_a-signal.o)
                              ../../pic32/compiler/pic32-tools/bin/../lib/gcc/pic32mx/4.5.2/../../../../pic32mx/lib\libc.a(lib_a-abort.o) (raise)
../../pic32/compiler/pic32-tools/bin/../lib/gcc/pic32mx/4.5.2/../../../../pic32mx/lib\libc.a(lib_a-signalr.o)
                              ../../pic32/compiler/pic32-tools/bin/../lib/gcc/pic32mx/4.5.2/../../../../pic32mx/lib\libc.a(lib_a-signal.o) (_kill_r)
../../pic32/compiler/pic32-tools/bin/../lib/gcc/pic32mx/4.5.2/../../../../pic32mx/lib\libc.a(lib_a-stdio.o)
                              ../../pic32/compiler/pic32-tools/bin/../lib/gcc/pic32mx/4.5.2/../../../../pic32mx/lib\libc.a(lib_a-findfp.o) (__sread)
../../pic32/compiler/pic32-tools/bin/../lib/gcc/pic32mx/4.5.2/../../../../pic32mx/lib\libc.a(lib_a-strcmp.o)
                              ../../pic32/compiler/pic32-tools/bin/../lib/gcc/pic32mx/4.5.2/../../../../pic32mx/lib\libc.a(lib_a-locale.o) (strcmp)
../../pic32/compiler/pic32-tools/bin/../lib/gcc/pic32mx/4.5.2/../../../../pic32mx/lib\libc.a(lib_a-strlen.o)
                              ../../pic32/compiler/pic32-tools/bin/../lib/gcc/pic32mx/4.5.2/../../../../pic32mx/lib\libc.a(lib_a-vfiprintf.o) (strlen)
../../pic32/compiler/pic32-tools/bin/../lib/gcc/pic32mx/4.5.2/../../../../pic32mx/lib\libc.a(lib_a-wbuf.o)
                              ../../pic32/compiler/pic32-tools/bin/../lib/gcc/pic32mx/4.5.2/../../../../pic32mx/lib\libc.a(lib_a-fputwc.o) (__swbuf_r)
../../pic32/compiler/pic32-tools/bin/../lib/gcc/pic32mx/4.5.2/../../../../pic32mx/lib\libc.a(lib_a-wcrtomb.o)
                              ../../pic32/compiler/pic32-tools/bin/../lib/gcc/pic32mx/4.5.2/../../../../pic32mx/lib\libc.a(lib_a-fputwc.o) (_wcrtomb_r)
../../pic32/compiler/pic32-tools/bin/../lib/gcc/pic32mx/4.5.2/../../../../pic32mx/lib\libc.a(lib_a-wctomb_r.o)
                              ../../pic32/compiler/pic32-tools/bin/../lib/gcc/pic32mx/4.5.2/../../../../pic32mx/lib\libc.a(lib_a-wcrtomb.o) (__wctomb)
../../pic32/compiler/pic32-tools/bin/../lib/gcc/pic32mx/4.5.2/../../../../pic32mx/lib\libc.a(lib_a-writer.o)
                              ../../pic32/compiler/pic32-tools/bin/../lib/gcc/pic32mx/4.5.2/../../../../pic32mx/lib\libc.a(lib_a-stdio.o) (_write_r)
../../pic32/compiler/pic32-tools/bin/../lib/gcc/pic32mx/4.5.2/../../../../pic32mx/lib\libc.a(lib_a-callocr.o)
                              ../../pic32/compiler/pic32-tools/bin/../lib/gcc/pic32mx/4.5.2/../../../../pic32mx/lib\libc.a(lib_a-mprec.o) (_calloc_r)
../../pic32/compiler/pic32-tools/bin/../lib/gcc/pic32mx/4.5.2/../../../../pic32mx/lib\libc.a(lib_a-closer.o)
                              ../../pic32/compiler/pic32-tools/bin/../lib/gcc/pic32mx/4.5.2/../../../../pic32mx/lib\libc.a(lib_a-stdio.o) (_close_r)
../../pic32/compiler/pic32-tools/bin/../lib/gcc/pic32mx/4.5.2/../../../../pic32mx/lib\libc.a(lib_a-fclose.o)
                              ../../pic32/compiler/pic32-tools/bin/../lib/gcc/pic32mx/4.5.2/../../../../pic32mx/lib\libc.a(lib_a-findfp.o) (fclose)
../../pic32/compiler/pic32-tools/bin/../lib/gcc/pic32mx/4.5.2/../../../../pic32mx/lib\libc.a(lib_a-fstatr.o)
                              ../../pic32/compiler/pic32-tools/bin/../lib/gcc/pic32mx/4.5.2/../../../../pic32mx/lib\libc.a(lib_a-makebuf.o) (_fstat_r)
../../pic32/compiler/pic32-tools/bin/../lib/gcc/pic32mx/4.5.2/../../../../pic32mx/lib\libc.a(lib_a-isattyr.o)
                              ../../pic32/compiler/pic32-tools/bin/../lib/gcc/pic32mx/4.5.2/../../../../pic32mx/lib\libc.a(lib_a-makebuf.o) (_isatty_r)
../../pic32/compiler/pic32-tools/bin/../lib/gcc/pic32mx/4.5.2/../../../../pic32mx/lib\libc.a(lib_a-lseekr.o)
                              ../../pic32/compiler/pic32-tools/bin/../lib/gcc/pic32mx/4.5.2/../../../../pic32mx/lib\libc.a(lib_a-stdio.o) (_lseek_r)
../../pic32/compiler/pic32-tools/bin/../lib/gcc/pic32mx/4.5.2/../../../../pic32mx/lib\libc.a(lib_a-readr.o)
                              ../../pic32/compiler/pic32-tools/bin/../lib/gcc/pic32mx/4.5.2/../../../../pic32mx/lib\libc.a(lib_a-stdio.o) (_read_r)
../../pic32/compiler/pic32-tools/bin/../lib/gcc/pic32mx/4.5.2/../../../../pic32mx/lib\libc.a(lib_a-reent.o)
                              ../../pic32/compiler/pic32-tools/bin/../lib/gcc/pic32mx/4.5.2/../../../../pic32mx/lib\libc.a(lib_a-sbrkr.o) (errno)
../../pic32/compiler/pic32-tools/bin/../lib/gcc/pic32mx/4.5.2/../../../../pic32mx/lib\libpic32.a(sbrk.o)
                              ../../pic32/compiler/pic32-tools/bin/../lib/gcc/pic32mx/4.5.2/../../../../pic32mx/lib\libc.a(lib_a-sbrkr.o) (sbrk)
../../pic32/compiler/pic32-tools/bin/../lib/gcc/pic32mx/4.5.2/../../../../pic32mx/lib\libpic32.a(default-bootstrap-exception-handler.o)
                              obj/crt0.o (_bootstrap_exception_handler)
../../pic32/compiler/pic32-tools/bin/../lib/gcc/pic32mx/4.5.2/../../../../pic32mx/lib\libpic32.a(default-on-reset.o)
                              obj/crt0.o (_on_reset)
../../pic32/compiler/pic32-tools/bin/../lib/gcc/pic32mx/4.5.2/../../../../pic32mx/lib\libpic32.a(default-on-bootstrap.o)
                              obj/crt0.o (_on_bootstrap)
../../pic32/compiler/pic32-tools/bin/../lib/gcc/pic32mx/4.5.2/../../../../pic32mx/lib\libpic32.a(default-nmi-handler.o)
                              obj/crt0.o (_nmi_handler)
../../pic32/compiler/pic32-tools/bin/../lib/gcc/pic32mx/4.5.2/../../../../pic32mx/lib\libpic32.a(_exit.o)
                              ../../pic32/compiler/pic32-tools/bin/../lib/gcc/pic32mx/4.5.2/../../../../pic32mx/lib\libc.a(lib_a-abort.o) (_exit)
../../pic32/compiler/pic32-tools/bin/../lib/gcc/pic32mx/4.5.2/../../../../pic32mx/lib\libpic32.a(isatty.o)
                              ../../pic32/compiler/pic32-tools/bin/../lib/gcc/pic32mx/4.5.2/../../../../pic32mx/lib\libc.a(lib_a-isattyr.o) (isatty)
../../pic32/compiler/pic32-tools/bin/../lib/gcc/pic32mx/4.5.2/../../../../pic32mx/lib\libpic32.a(read.o)
                              ../../pic32/compiler/pic32-tools/bin/../lib/gcc/pic32mx/4.5.2/../../../../pic32mx/lib\libc.a(lib_a-readr.o) (read)
../../pic32/compiler/pic32-tools/bin/../lib/gcc/pic32mx/4.5.2/../../../../pic32mx/lib\libpic32.a(write.o)
                              ../../pic32/compiler/pic32-tools/bin/../lib/gcc/pic32mx/4.5.2/../../../../pic32mx/lib\libc.a(lib_a-writer.o) (write)
../../pic32/compiler/pic32-tools/bin/../lib/gcc/pic32mx/4.5.2/../../../../pic32mx/lib\libpic32.a(lseek.o)
                              ../../pic32/compiler/pic32-tools/bin/../lib/gcc/pic32mx/4.5.2/../../../../pic32mx/lib\libc.a(lib_a-lseekr.o) (lseek)
../../pic32/compiler/pic32-tools/bin/../lib/gcc/pic32mx/4.5.2/../../../../pic32mx/lib\libpic32.a(close.o)
                              ../../pic32/compiler/pic32-tools/bin/../lib/gcc/pic32mx/4.5.2/../../../../pic32mx/lib\libc.a(lib_a-closer.o) (close)
../../pic32/compiler/pic32-tools/bin/../lib/gcc/pic32mx/4.5.2/../../../../pic32mx/lib\libpic32.a(fstat.o)
                              ../../pic32/compiler/pic32-tools/bin/../lib/gcc/pic32mx/4.5.2/../../../../pic32mx/lib\libc.a(lib_a-fstatr.o) (fstat)
../../pic32/compiler/pic32-tools/bin/../lib/gcc/pic32mx/4.5.2/../../../../pic32mx/lib\libpic32.a(kill.o)
                              ../../pic32/compiler/pic32-tools/bin/../lib/gcc/pic32mx/4.5.2/../../../../pic32mx/lib\libc.a(lib_a-signalr.o) (kill)
../../pic32/compiler/pic32-tools/bin/../lib/gcc/pic32mx/4.5.2/../../../../pic32mx/lib\libpic32.a(getpid.o)
                              ../../pic32/compiler/pic32-tools/bin/../lib/gcc/pic32mx/4.5.2/../../../../pic32mx/lib\libc.a(lib_a-signalr.o) (getpid)
../../pic32/compiler/pic32-tools/bin/../lib/gcc/pic32mx/4.5.2/../../../../pic32mx/lib\libpic32.a(xc32_uart.o)
                              ../../pic32/compiler/pic32-tools/bin/../lib/gcc/pic32mx/4.5.2/../../../../pic32mx/lib\libpic32.a(read.o) (__XC_UART)
../../pic32/compiler/pic32-tools/bin/../lib/gcc/pic32mx/4.5.2/../../../../pic32mx/lib\libpic32.a(pic32_software_reset.o)
                              ../../pic32/compiler/pic32-tools/bin/../lib/gcc/pic32mx/4.5.2/../../../../pic32mx/lib\libpic32.a(default-bootstrap-exception-handler.o) (__pic32_software_reset)
../../pic32/compiler/pic32-tools/bin/../lib/gcc/pic32mx/4.5.2/../../../../pic32mx/lib\libpic32.a(vector0.o)
                              ../../pic32/compiler/pic32-tools/bin/../lib/gcc/pic32mx/4.5.2/../../../../pic32mx/lib/./proc/32MX250F128B\default_isr_vectors.o (__vector_dispatch_0)
../../pic32/compiler/pic32-tools/bin/../lib/gcc/pic32mx/4.5.2/../../../../pic32mx/lib\libpic32.a(vector1.o)
                              ../../pic32/compiler/pic32-tools/bin/../lib/gcc/pic32mx/4.5.2/../../../../pic32mx/lib/./proc/32MX250F128B\default_isr_vectors.o (__vector_dispatch_1)
../../pic32/compiler/pic32-tools/bin/../lib/gcc/pic32mx/4.5.2/../../../../pic32mx/lib\libpic32.a(vector2.o)
                              ../../pic32/compiler/pic32-tools/bin/../lib/gcc/pic32mx/4.5.2/../../../../pic32mx/lib/./proc/32MX250F128B\default_isr_vectors.o (__vector_dispatch_2)
../../pic32/compiler/pic32-tools/bin/../lib/gcc/pic32mx/4.5.2/../../../../pic32mx/lib\libpic32.a(vector3.o)
                              ../../pic32/compiler/pic32-tools/bin/../lib/gcc/pic32mx/4.5.2/../../../../pic32mx/lib/./proc/32MX250F128B\default_isr_vectors.o (__vector_dispatch_3)
../../pic32/compiler/pic32-tools/bin/../lib/gcc/pic32mx/4.5.2/../../../../pic32mx/lib\libpic32.a(vector4.o)
                              ../../pic32/compiler/pic32-tools/bin/../lib/gcc/pic32mx/4.5.2/../../../../pic32mx/lib/./proc/32MX250F128B\default_isr_vectors.o (__vector_dispatch_4)
../../pic32/compiler/pic32-tools/bin/../lib/gcc/pic32mx/4.5.2/../../../../pic32mx/lib\libpic32.a(vector5.o)
                              ../../pic32/compiler/pic32-tools/bin/../lib/gcc/pic32mx/4.5.2/../../../../pic32mx/lib/./proc/32MX250F128B\default_isr_vectors.o (__vector_dispatch_5)
../../pic32/compiler/pic32-tools/bin/../lib/gcc/pic32mx/4.5.2/../../../../pic32mx/lib\libpic32.a(vector6.o)
                              ../../pic32/compiler/pic32-tools/bin/../lib/gcc/pic32mx/4.5.2/../../../../pic32mx/lib/./proc/32MX250F128B\default_isr_vectors.o (__vector_dispatch_6)
../../pic32/compiler/pic32-tools/bin/../lib/gcc/pic32mx/4.5.2/../../../../pic32mx/lib\libpic32.a(vector7.o)
                              ../../pic32/compiler/pic32-tools/bin/../lib/gcc/pic32mx/4.5.2/../../../../pic32mx/lib/./proc/32MX250F128B\default_isr_vectors.o (__vector_dispatch_7)
../../pic32/compiler/pic32-tools/bin/../lib/gcc/pic32mx/4.5.2/../../../../pic32mx/lib\libpic32.a(vector8.o)
                              ../../pic32/compiler/pic32-tools/bin/../lib/gcc/pic32mx/4.5.2/../../../../pic32mx/lib/./proc/32MX250F128B\default_isr_vectors.o (__vector_dispatch_8)
../../pic32/compiler/pic32-tools/bin/../lib/gcc/pic32mx/4.5.2/../../../../pic32mx/lib\libpic32.a(vector9.o)
                              ../../pic32/compiler/pic32-tools/bin/../lib/gcc/pic32mx/4.5.2/../../../../pic32mx/lib/./proc/32MX250F128B\default_isr_vectors.o (__vector_dispatch_9)
../../pic32/compiler/pic32-tools/bin/../lib/gcc/pic32mx/4.5.2/../../../../pic32mx/lib\libpic32.a(vector10.o)
                              ../../pic32/compiler/pic32-tools/bin/../lib/gcc/pic32mx/4.5.2/../../../../pic32mx/lib/./proc/32MX250F128B\default_isr_vectors.o (__vector_dispatch_10)
../../pic32/compiler/pic32-tools/bin/../lib/gcc/pic32mx/4.5.2/../../../../pic32mx/lib\libpic32.a(vector11.o)
                              ../../pic32/compiler/pic32-tools/bin/../lib/gcc/pic32mx/4.5.2/../../../../pic32mx/lib/./proc/32MX250F128B\default_isr_vectors.o (__vector_dispatch_11)
../../pic32/compiler/pic32-tools/bin/../lib/gcc/pic32mx/4.5.2/../../../../pic32mx/lib\libpic32.a(vector12.o)
                              ../../pic32/compiler/pic32-tools/bin/../lib/gcc/pic32mx/4.5.2/../../../../pic32mx/lib/./proc/32MX250F128B\default_isr_vectors.o (__vector_dispatch_12)
../../pic32/compiler/pic32-tools/bin/../lib/gcc/pic32mx/4.5.2/../../../../pic32mx/lib\libpic32.a(vector13.o)
                              ../../pic32/compiler/pic32-tools/bin/../lib/gcc/pic32mx/4.5.2/../../../../pic32mx/lib/./proc/32MX250F128B\default_isr_vectors.o (__vector_dispatch_13)
../../pic32/compiler/pic32-tools/bin/../lib/gcc/pic32mx/4.5.2/../../../../pic32mx/lib\libpic32.a(vector14.o)
                              ../../pic32/compiler/pic32-tools/bin/../lib/gcc/pic32mx/4.5.2/../../../../pic32mx/lib/./proc/32MX250F128B\default_isr_vectors.o (__vector_dispatch_14)
../../pic32/compiler/pic32-tools/bin/../lib/gcc/pic32mx/4.5.2/../../../../pic32mx/lib\libpic32.a(vector15.o)
                              ../../pic32/compiler/pic32-tools/bin/../lib/gcc/pic32mx/4.5.2/../../../../pic32mx/lib/./proc/32MX250F128B\default_isr_vectors.o (__vector_dispatch_15)
../../pic32/compiler/pic32-tools/bin/../lib/gcc/pic32mx/4.5.2/../../../../pic32mx/lib\libpic32.a(vector16.o)
                              ../../pic32/compiler/pic32-tools/bin/../lib/gcc/pic32mx/4.5.2/../../../../pic32mx/lib/./proc/32MX250F128B\default_isr_vectors.o (__vector_dispatch_16)
../../pic32/compiler/pic32-tools/bin/../lib/gcc/pic32mx/4.5.2/../../../../pic32mx/lib\libpic32.a(vector17.o)
                              ../../pic32/compiler/pic32-tools/bin/../lib/gcc/pic32mx/4.5.2/../../../../pic32mx/lib/./proc/32MX250F128B\default_isr_vectors.o (__vector_dispatch_17)
../../pic32/compiler/pic32-tools/bin/../lib/gcc/pic32mx/4.5.2/../../../../pic32mx/lib\libpic32.a(vector18.o)
                              ../../pic32/compiler/pic32-tools/bin/../lib/gcc/pic32mx/4.5.2/../../../../pic32mx/lib/./proc/32MX250F128B\default_isr_vectors.o (__vector_dispatch_18)
../../pic32/compiler/pic32-tools/bin/../lib/gcc/pic32mx/4.5.2/../../../../pic32mx/lib\libpic32.a(vector19.o)
                              ../../pic32/compiler/pic32-tools/bin/../lib/gcc/pic32mx/4.5.2/../../../../pic32mx/lib/./proc/32MX250F128B\default_isr_vectors.o (__vector_dispatch_19)
../../pic32/compiler/pic32-tools/bin/../lib/gcc/pic32mx/4.5.2/../../../../pic32mx/lib\libpic32.a(vector20.o)
                              ../../pic32/compiler/pic32-tools/bin/../lib/gcc/pic32mx/4.5.2/../../../../pic32mx/lib/./proc/32MX250F128B\default_isr_vectors.o (__vector_dispatch_20)
../../pic32/compiler/pic32-tools/bin/../lib/gcc/pic32mx/4.5.2/../../../../pic32mx/lib\libpic32.a(vector21.o)
                              ../../pic32/compiler/pic32-tools/bin/../lib/gcc/pic32mx/4.5.2/../../../../pic32mx/lib/./proc/32MX250F128B\default_isr_vectors.o (__vector_dispatch_21)
../../pic32/compiler/pic32-tools/bin/../lib/gcc/pic32mx/4.5.2/../../../../pic32mx/lib\libpic32.a(vector22.o)
                              ../../pic32/compiler/pic32-tools/bin/../lib/gcc/pic32mx/4.5.2/../../../../pic32mx/lib/./proc/32MX250F128B\default_isr_vectors.o (__vector_dispatch_22)
../../pic32/compiler/pic32-tools/bin/../lib/gcc/pic32mx/4.5.2/../../../../pic32mx/lib\libpic32.a(vector23.o)
                              ../../pic32/compiler/pic32-tools/bin/../lib/gcc/pic32mx/4.5.2/../../../../pic32mx/lib/./proc/32MX250F128B\default_isr_vectors.o (__vector_dispatch_23)
../../pic32/compiler/pic32-tools/bin/../lib/gcc/pic32mx/4.5.2/../../../../pic32mx/lib\libpic32.a(vector24.o)
                              ../../pic32/compiler/pic32-tools/bin/../lib/gcc/pic32mx/4.5.2/../../../../pic32mx/lib/./proc/32MX250F128B\default_isr_vectors.o (__vector_dispatch_24)
../../pic32/compiler/pic32-tools/bin/../lib/gcc/pic32mx/4.5.2/../../../../pic32mx/lib\libpic32.a(vector25.o)
                              ../../pic32/compiler/pic32-tools/bin/../lib/gcc/pic32mx/4.5.2/../../../../pic32mx/lib/./proc/32MX250F128B\default_isr_vectors.o (__vector_dispatch_25)
../../pic32/compiler/pic32-tools/bin/../lib/gcc/pic32mx/4.5.2/../../../../pic32mx/lib\libpic32.a(vector26.o)
                              ../../pic32/compiler/pic32-tools/bin/../lib/gcc/pic32mx/4.5.2/../../../../pic32mx/lib/./proc/32MX250F128B\default_isr_vectors.o (__vector_dispatch_26)
../../pic32/compiler/pic32-tools/bin/../lib/gcc/pic32mx/4.5.2/../../../../pic32mx/lib\libpic32.a(vector27.o)
                              ../../pic32/compiler/pic32-tools/bin/../lib/gcc/pic32mx/4.5.2/../../../../pic32mx/lib/./proc/32MX250F128B\default_isr_vectors.o (__vector_dispatch_27)
../../pic32/compiler/pic32-tools/bin/../lib/gcc/pic32mx/4.5.2/../../../../pic32mx/lib\libpic32.a(vector28.o)
                              ../../pic32/compiler/pic32-tools/bin/../lib/gcc/pic32mx/4.5.2/../../../../pic32mx/lib/./proc/32MX250F128B\default_isr_vectors.o (__vector_dispatch_28)
../../pic32/compiler/pic32-tools/bin/../lib/gcc/pic32mx/4.5.2/../../../../pic32mx/lib\libpic32.a(vector29.o)
                              ../../pic32/compiler/pic32-tools/bin/../lib/gcc/pic32mx/4.5.2/../../../../pic32mx/lib/./proc/32MX250F128B\default_isr_vectors.o (__vector_dispatch_29)
../../pic32/compiler/pic32-tools/bin/../lib/gcc/pic32mx/4.5.2/../../../../pic32mx/lib\libpic32.a(vector30.o)
                              ../../pic32/compiler/pic32-tools/bin/../lib/gcc/pic32mx/4.5.2/../../../../pic32mx/lib/./proc/32MX250F128B\default_isr_vectors.o (__vector_dispatch_30)
../../pic32/compiler/pic32-tools/bin/../lib/gcc/pic32mx/4.5.2/../../../../pic32mx/lib\libpic32.a(vector31.o)
                              ../../pic32/compiler/pic32-tools/bin/../lib/gcc/pic32mx/4.5.2/../../../../pic32mx/lib/./proc/32MX250F128B\default_isr_vectors.o (__vector_dispatch_31)
../../pic32/compiler/pic32-tools/bin/../lib/gcc/pic32mx/4.5.2/../../../../pic32mx/lib\libpic32.a(vector32.o)
                              ../../pic32/compiler/pic32-tools/bin/../lib/gcc/pic32mx/4.5.2/../../../../pic32mx/lib/./proc/32MX250F128B\default_isr_vectors.o (__vector_dispatch_32)
../../pic32/compiler/pic32-tools/bin/../lib/gcc/pic32mx/4.5.2/../../../../pic32mx/lib\libpic32.a(vector33.o)
                              ../../pic32/compiler/pic32-tools/bin/../lib/gcc/pic32mx/4.5.2/../../../../pic32mx/lib/./proc/32MX250F128B\default_isr_vectors.o (__vector_dispatch_33)
../../pic32/compiler/pic32-tools/bin/../lib/gcc/pic32mx/4.5.2/../../../../pic32mx/lib\libpic32.a(vector34.o)
                              ../../pic32/compiler/pic32-tools/bin/../lib/gcc/pic32mx/4.5.2/../../../../pic32mx/lib/./proc/32MX250F128B\default_isr_vectors.o (__vector_dispatch_34)
../../pic32/compiler/pic32-tools/bin/../lib/gcc/pic32mx/4.5.2/../../../../pic32mx/lib\libpic32.a(vector35.o)
                              ../../pic32/compiler/pic32-tools/bin/../lib/gcc/pic32mx/4.5.2/../../../../pic32mx/lib/./proc/32MX250F128B\default_isr_vectors.o (__vector_dispatch_35)
../../pic32/compiler/pic32-tools/bin/../lib/gcc/pic32mx/4.5.2/../../../../pic32mx/lib\libpic32.a(vector36.o)
                              ../../pic32/compiler/pic32-tools/bin/../lib/gcc/pic32mx/4.5.2/../../../../pic32mx/lib/./proc/32MX250F128B\default_isr_vectors.o (__vector_dispatch_36)
../../pic32/compiler/pic32-tools/bin/../lib/gcc/pic32mx/4.5.2/../../../../pic32mx/lib\libpic32.a(vector37.o)
                              ../../pic32/compiler/pic32-tools/bin/../lib/gcc/pic32mx/4.5.2/../../../../pic32mx/lib/./proc/32MX250F128B\default_isr_vectors.o (__vector_dispatch_37)
../../pic32/compiler/pic32-tools/bin/../lib/gcc/pic32mx/4.5.2/../../../../pic32mx/lib\libpic32.a(vector38.o)
                              ../../pic32/compiler/pic32-tools/bin/../lib/gcc/pic32mx/4.5.2/../../../../pic32mx/lib/./proc/32MX250F128B\default_isr_vectors.o (__vector_dispatch_38)
../../pic32/compiler/pic32-tools/bin/../lib/gcc/pic32mx/4.5.2/../../../../pic32mx/lib\libpic32.a(vector39.o)
                              ../../pic32/compiler/pic32-tools/bin/../lib/gcc/pic32mx/4.5.2/../../../../pic32mx/lib/./proc/32MX250F128B\default_isr_vectors.o (__vector_dispatch_39)
../../pic32/compiler/pic32-tools/bin/../lib/gcc/pic32mx/4.5.2/../../../../pic32mx/lib\libpic32.a(vector40.o)
                              ../../pic32/compiler/pic32-tools/bin/../lib/gcc/pic32mx/4.5.2/../../../../pic32mx/lib/./proc/32MX250F128B\default_isr_vectors.o (__vector_dispatch_40)
../../pic32/compiler/pic32-tools/bin/../lib/gcc/pic32mx/4.5.2/../../../../pic32mx/lib\libpic32.a(vector41.o)
                              ../../pic32/compiler/pic32-tools/bin/../lib/gcc/pic32mx/4.5.2/../../../../pic32mx/lib/./proc/32MX250F128B\default_isr_vectors.o (__vector_dispatch_41)
../../pic32/compiler/pic32-tools/bin/../lib/gcc/pic32mx/4.5.2/../../../../pic32mx/lib\libpic32.a(vector42.o)
                              ../../pic32/compiler/pic32-tools/bin/../lib/gcc/pic32mx/4.5.2/../../../../pic32mx/lib/./proc/32MX250F128B\default_isr_vectors.o (__vector_dispatch_42)
../../pic32/compiler/pic32-tools/bin/../lib/gcc/pic32mx/4.5.2/../../../../pic32mx/lib\libpic32.a(vector43.o)
                              ../../pic32/compiler/pic32-tools/bin/../lib/gcc/pic32mx/4.5.2/../../../../pic32mx/lib/./proc/32MX250F128B\default_isr_vectors.o (__vector_dispatch_43)
../../pic32/compiler/pic32-tools/bin/../lib/gcc/pic32mx/4.5.2/../../../../pic32mx/lib\libpic32.a(vector44.o)
                              ../../pic32/compiler/pic32-tools/bin/../lib/gcc/pic32mx/4.5.2/../../../../pic32mx/lib/./proc/32MX250F128B\default_isr_vectors.o (__vector_dispatch_44)
../../pic32/compiler/pic32-tools/bin/../lib/gcc/pic32mx/4.5.2/../../../../pic32mx/lib\libpic32.a(vector45.o)
                              ../../pic32/compiler/pic32-tools/bin/../lib/gcc/pic32mx/4.5.2/../../../../pic32mx/lib/./proc/32MX250F128B\default_isr_vectors.o (__vector_dispatch_45)
../../pic32/compiler/pic32-tools/bin/../lib/gcc/pic32mx/4.5.2/../../../../pic32mx/lib\libpic32.a(vector46.o)
                              ../../pic32/compiler/pic32-tools/bin/../lib/gcc/pic32mx/4.5.2/../../../../pic32mx/lib/./proc/32MX250F128B\default_isr_vectors.o (__vector_dispatch_46)
../../pic32/compiler/pic32-tools/bin/../lib/gcc/pic32mx/4.5.2/../../../../pic32mx/lib\libpic32.a(vector47.o)
                              ../../pic32/compiler/pic32-tools/bin/../lib/gcc/pic32mx/4.5.2/../../../../pic32mx/lib/./proc/32MX250F128B\default_isr_vectors.o (__vector_dispatch_47)
../../pic32/compiler/pic32-tools/bin/../lib/gcc/pic32mx/4.5.2/../../../../pic32mx/lib\libpic32.a(vector48.o)
                              ../../pic32/compiler/pic32-tools/bin/../lib/gcc/pic32mx/4.5.2/../../../../pic32mx/lib/./proc/32MX250F128B\default_isr_vectors.o (__vector_dispatch_48)
../../pic32/compiler/pic32-tools/bin/../lib/gcc/pic32mx/4.5.2/../../../../pic32mx/lib\libpic32.a(vector49.o)
                              ../../pic32/compiler/pic32-tools/bin/../lib/gcc/pic32mx/4.5.2/../../../../pic32mx/lib/./proc/32MX250F128B\default_isr_vectors.o (__vector_dispatch_49)
../../pic32/compiler/pic32-tools/bin/../lib/gcc/pic32mx/4.5.2/../../../../pic32mx/lib\libpic32.a(vector50.o)
                              ../../pic32/compiler/pic32-tools/bin/../lib/gcc/pic32mx/4.5.2/../../../../pic32mx/lib/./proc/32MX250F128B\default_isr_vectors.o (__vector_dispatch_50)
../../pic32/compiler/pic32-tools/bin/../lib/gcc/pic32mx/4.5.2/../../../../pic32mx/lib\libpic32.a(vector51.o)
                              ../../pic32/compiler/pic32-tools/bin/../lib/gcc/pic32mx/4.5.2/../../../../pic32mx/lib/./proc/32MX250F128B\default_isr_vectors.o (__vector_dispatch_51)
../../pic32/compiler/pic32-tools/bin/../lib/gcc/pic32mx/4.5.2/../../../../pic32mx/lib\libpic32.a(vector52.o)
                              ../../pic32/compiler/pic32-tools/bin/../lib/gcc/pic32mx/4.5.2/../../../../pic32mx/lib/./proc/32MX250F128B\default_isr_vectors.o (__vector_dispatch_52)
../../pic32/compiler/pic32-tools/bin/../lib/gcc/pic32mx/4.5.2/../../../../pic32mx/lib\libpic32.a(vector53.o)
                              ../../pic32/compiler/pic32-tools/bin/../lib/gcc/pic32mx/4.5.2/../../../../pic32mx/lib/./proc/32MX250F128B\default_isr_vectors.o (__vector_dispatch_53)
../../pic32/compiler/pic32-tools/bin/../lib/gcc/pic32mx/4.5.2/../../../../pic32mx/lib\libpic32.a(vector54.o)
                              ../../pic32/compiler/pic32-tools/bin/../lib/gcc/pic32mx/4.5.2/../../../../pic32mx/lib/./proc/32MX250F128B\default_isr_vectors.o (__vector_dispatch_54)
../../pic32/compiler/pic32-tools/bin/../lib/gcc/pic32mx/4.5.2/../../../../pic32mx/lib\libpic32.a(vector55.o)
                              ../../pic32/compiler/pic32-tools/bin/../lib/gcc/pic32mx/4.5.2/../../../../pic32mx/lib/./proc/32MX250F128B\default_isr_vectors.o (__vector_dispatch_55)
../../pic32/compiler/pic32-tools/bin/../lib/gcc/pic32mx/4.5.2/../../../../pic32mx/lib\libpic32.a(vector56.o)
                              ../../pic32/compiler/pic32-tools/bin/../lib/gcc/pic32mx/4.5.2/../../../../pic32mx/lib/./proc/32MX250F128B\default_isr_vectors.o (__vector_dispatch_56)
../../pic32/compiler/pic32-tools/bin/../lib/gcc/pic32mx/4.5.2/../../../../pic32mx/lib\libpic32.a(vector57.o)
                              ../../pic32/compiler/pic32-tools/bin/../lib/gcc/pic32mx/4.5.2/../../../../pic32mx/lib/./proc/32MX250F128B\default_isr_vectors.o (__vector_dispatch_57)
../../pic32/compiler/pic32-tools/bin/../lib/gcc/pic32mx/4.5.2/../../../../pic32mx/lib\libpic32.a(vector58.o)
                              ../../pic32/compiler/pic32-tools/bin/../lib/gcc/pic32mx/4.5.2/../../../../pic32mx/lib/./proc/32MX250F128B\default_isr_vectors.o (__vector_dispatch_58)
../../pic32/compiler/pic32-tools/bin/../lib/gcc/pic32mx/4.5.2/../../../../pic32mx/lib\libpic32.a(vector59.o)
                              ../../pic32/compiler/pic32-tools/bin/../lib/gcc/pic32mx/4.5.2/../../../../pic32mx/lib/./proc/32MX250F128B\default_isr_vectors.o (__vector_dispatch_59)
../../pic32/compiler/pic32-tools/bin/../lib/gcc/pic32mx/4.5.2/../../../../pic32mx/lib\libpic32.a(vector60.o)
                              ../../pic32/compiler/pic32-tools/bin/../lib/gcc/pic32mx/4.5.2/../../../../pic32mx/lib/./proc/32MX250F128B\default_isr_vectors.o (__vector_dispatch_60)
../../pic32/compiler/pic32-tools/bin/../lib/gcc/pic32mx/4.5.2/../../../../pic32mx/lib\libpic32.a(vector61.o)
                              ../../pic32/compiler/pic32-tools/bin/../lib/gcc/pic32mx/4.5.2/../../../../pic32mx/lib/./proc/32MX250F128B\default_isr_vectors.o (__vector_dispatch_61)
../../pic32/compiler/pic32-tools/bin/../lib/gcc/pic32mx/4.5.2/../../../../pic32mx/lib\libpic32.a(vector62.o)
                              ../../pic32/compiler/pic32-tools/bin/../lib/gcc/pic32mx/4.5.2/../../../../pic32mx/lib/./proc/32MX250F128B\default_isr_vectors.o (__vector_dispatch_62)
../../pic32/compiler/pic32-tools/bin/../lib/gcc/pic32mx/4.5.2/../../../../pic32mx/lib\libpic32.a(vector63.o)
                              ../../pic32/compiler/pic32-tools/bin/../lib/gcc/pic32mx/4.5.2/../../../../pic32mx/lib/./proc/32MX250F128B\default_isr_vectors.o (__vector_dispatch_63)
../../pic32/compiler/pic32-tools/bin/../lib/gcc/pic32mx/4.5.2/../../../../pic32mx/lib\libpic32.a(_mon_putc.o)
                              ../../pic32/compiler/pic32-tools/bin/../lib/gcc/pic32mx/4.5.2/../../../../pic32mx/lib\libpic32.a(write.o) (_mon_putc)
../../pic32/compiler/pic32-tools/bin/../lib/gcc/pic32mx/4.5.2/../../../../pic32mx/lib\libpic32.a(defaultinterrupt.o)
                              ../../pic32/compiler/pic32-tools/bin/../lib/gcc/pic32mx/4.5.2/../../../../pic32mx/lib\libpic32.a(vector0.o) (_DefaultInterrupt)
../../pic32/compiler/pic32-tools/bin/../lib/gcc/pic32mx/4.5.2\libgcc.a(_udivdi3.o)
                              ../../pic32/compiler/pic32-tools/bin/../lib/gcc/pic32mx/4.5.2/../../../../pic32mx/lib\libc.a(lib_a-vfiprintf.o) (__udivdi3)
../../pic32/compiler/pic32-tools/bin/../lib/gcc/pic32mx/4.5.2\libgcc.a(_umoddi3.o)
                              ../../pic32/compiler/pic32-tools/bin/../lib/gcc/pic32mx/4.5.2/../../../../pic32mx/lib\libc.a(lib_a-vfiprintf.o) (__umoddi3)
../../pic32/compiler/pic32-tools/bin/../lib/gcc/pic32mx/4.5.2\libgcc.a(ledf2.o)
                              ../../pic32/compiler/pic32-tools/bin/../lib/gcc/pic32mx/4.5.2/../../../../pic32mx/lib\libc.a(lib_a-vfprintf.o) (__ltdf2)
../../pic32/compiler/pic32-tools/bin/../lib/gcc/pic32mx/4.5.2/../../../../pic32mx/lib\libmchp_peripheral_32MX250F128B.a(osc_config_lib.o)
                              obj/newmain.o (OSCConfig)
../../pic32/compiler/pic32-tools/bin/../lib/gcc/pic32mx/4.5.2/../../../../pic32mx/lib\libmchp_peripheral_32MX250F128B.a(int_disable_interrupts_lib.o)
                              ../../pic32/compiler/pic32-tools/bin/../lib/gcc/pic32mx/4.5.2/../../../../pic32mx/lib\libmchp_peripheral_32MX250F128B.a(osc_config_lib.o) (INTDisableInterrupts)
../../pic32/compiler/pic32-tools/bin/../lib/gcc/pic32mx/4.5.2/../../../../pic32mx/lib\libmchp_peripheral_32MX250F128B.a(int_restore_interrupts_lib.o)
                              ../../pic32/compiler/pic32-tools/bin/../lib/gcc/pic32mx/4.5.2/../../../../pic32mx/lib\libmchp_peripheral_32MX250F128B.a(osc_config_lib.o) (INTRestoreInterrupts)
../../pic32/compiler/pic32-tools/bin/../lib/gcc/pic32mx/4.5.2/../../../../pic32mx/lib\libmchp_peripheral_32MX250F128B.a(spi_getc_spi2_lib_legacy.o)
                              obj/mmc_xmega.o (getcSPI2)
../../pic32/compiler/pic32-tools/bin/../lib/gcc/pic32mx/4.5.2/../../../../pic32mx/lib\libmchp_peripheral_32MX250F128B.a(spi_open_spi2_lib_legacy.o)
                              obj/mmc_xmega.o (OpenSPI2)
../../pic32/compiler/pic32-tools/bin/../lib/gcc/pic32mx/4.5.2/../../../../pic32mx/lib\libmchp_peripheral_32MX250F128B.a(spi_brg_tbl_lib_legacy.o)
                              ../../pic32/compiler/pic32-tools/bin/../lib/gcc/pic32mx/4.5.2/../../../../pic32mx/lib\libmchp_peripheral_32MX250F128B.a(spi_open_spi2_lib_legacy.o) (_SpiBrgConvTbl)
../../pic32/compiler/pic32-tools/bin/../lib/gcc/pic32mx/4.5.2/../../../../pic32mx/lib\libmchp_peripheral_32MX250F128B.a(dma_chn_clr_ev_flags_lib.o)
                              obj/mmc_xmega.o (DmaChnClrEvFlags)
../../pic32/compiler/pic32-tools/bin/../lib/gcc/pic32mx/4.5.2/../../../../pic32mx/lib\libmchp_peripheral_32MX250F128B.a(dma_chn_open_lib.o)
                              obj/mmc_xmega.o (DmaChnOpen)
../../pic32/compiler/pic32-tools/bin/../lib/gcc/pic32mx/4.5.2/../../../../pic32mx/lib\libmchp_peripheral_32MX250F128B.a(dma_chn_enable_lib.o)
                              obj/mmc_xmega.o (DmaChnEnable)
../../pic32/compiler/pic32-tools/bin/../lib/gcc/pic32mx/4.5.2/../../../../pic32mx/lib\libmchp_peripheral_32MX250F128B.a(dma_chn_get_ev_flags_lib.o)
                              obj/mmc_xmega.o (DmaChnGetEvFlags)
../../pic32/compiler/pic32-tools/bin/../lib/gcc/pic32mx/4.5.2/../../../../pic32mx/lib\libmchp_peripheral_32MX250F128B.a(dma_chn_write_event_control_flags_lib.o)
                              obj/mmc_xmega.o (DmaChnWriteEventControlFlags)
../../pic32/compiler/pic32-tools/bin/../lib/gcc/pic32mx/4.5.2/../../../../pic32mx/lib\libmchp_peripheral_32MX250F128B.a(dma_chn_set_txfer_lib.o)
                              obj/mmc_xmega.o (DmaChnSetTxfer)
../../pic32/compiler/pic32-tools/bin/../lib/gcc/pic32mx/4.5.2/../../../../pic32mx/lib\libmchp_peripheral_32MX250F128B.a(dma_chn_start_txfer_lib.o)
                              obj/mmc_xmega.o (DmaChnStartTxfer)
../../pic32/compiler/pic32-tools/bin/../lib/gcc/pic32mx/4.5.2/../../../../pic32mx/lib\libmchp_peripheral_32MX250F128B.a(dma_reg_map_tbl_lib.o)
                              ../../pic32/compiler/pic32-tools/bin/../lib/gcc/pic32mx/4.5.2/../../../../pic32mx/lib\libmchp_peripheral_32MX250F128B.a(dma_chn_clr_ev_flags_lib.o) (_DmaMapTbl)
../../pic32/compiler/pic32-tools/bin/../lib/gcc/pic32mx/4.5.2/../../../../pic32mx/lib\libmchp_peripheral_32MX250F128B.a(int_tbl_lib.o)
                              ../../pic32/compiler/pic32-tools/bin/../lib/gcc/pic32mx/4.5.2/../../../../pic32mx/lib\libmchp_peripheral_32MX250F128B.a(dma_chn_open_lib.o) (INTClearFlag)
../../pic32/compiler/pic32-tools/bin/../lib/gcc/pic32mx/4.5.2/../../../../pic32mx/lib\libc.a(lib_a-errno.o)
                              ../../pic32/compiler/pic32-tools/bin/../lib/gcc/pic32mx/4.5.2/../../../../pic32mx/lib\libpic32.a(sbrk.o) (__errno)

Allocating common symbols
Common symbol       size              file

errno               0x4               ../../pic32/compiler/pic32-tools/bin/../lib/gcc/pic32mx/4.5.2/../../../../pic32mx/lib\libc.a(lib_a-reent.o)

Microchip PIC32 Memory-Usage Report

kseg0 Program-Memory Usage
section                    address  length [bytes]      (dec)  Description
-------                 ----------  -------------------------  -----------
.init                   0x9d007490           0x24          36   
.fini                   0x9d0074b4           0x1c          28   
.ctors                  0x9d0074d0            0xc          12   
.dtors                  0x9d0074dc            0x8           8   
.text                   0x9d0074e4         0x36a4       13988  App's exec code 
.rodata                 0x9d00ab88         0x1c28        7208  Read-only const 
.text._vfprintf_r       0x9d00c7b0         0x1b10        6928   
.text                   0x9d00e2c0         0x1590        5520  App's exec code 
.text._dtoa_r           0x9d00f850         0x1350        4944   
.text                   0x9d010ba0         0x10c4        4292  App's exec code 
.text._vfiprintf_r      0x9d011c64          0xde4        3556   
.text                   0x9d012a48          0xdd8        3544  App's exec code 
.text.__kernel_rem_pio2 0x9d013820          0xc50        3152   
.dinit                  0x9d014470          0xad0        2768   
.text.__kernel_rem_pio2 0x9d014f40          0xa30        2608   
.text                   0x9d015970         0x18fc        6396  App's exec code 
.text.__ieee754_rem_pio 0x9d01726c          0x6f4        1780   
.text.__kernel_tan      0x9d017960          0x688        1672   
.text                   0x9d017fe8          0x684        1668  App's exec code 
.text._malloc_r         0x9d01866c          0x664        1636   
.text._realloc_r        0x9d018cd0          0x514        1300   
.text.__ieee754_rem_pio 0x9d0191e4          0x4e0        1248   
.text.__sfvwrite_r      0x9d0196c4          0x4d0        1232   
.text                   0x9d019b94         0x1a4c        6732  App's exec code 
.text.__kernel_cos      0x9d01b5e0          0x35c         860   
.rodata.two_over_pi.two 0x9d01b93c          0x318         792   
.text.__kernel_sin      0x9d01bc54          0x2b0         688   
.text                   0x9d01bf04          0x298         664  App's exec code 
.text._free_r           0x9d01c19c          0x270         624   
.text._fflush_r         0x9d01c40c          0x234         564   
.text.__kernel_cosf     0x9d01c640          0x220         544   
.text.quorem            0x9d01c860          0x204         516   
.kseg0_program_mem      0x9d01ca64          0x200         512   
.text.__multiply        0x9d01cc64          0x1e4         484   
.text.__kernel_sinf     0x9d01ce48          0x1c4         452   
.text.floor             0x9d01d00c          0x1c4         452   
.text                   0x9d01d1d0          0x1a8         424  App's exec code 
.text.__sinit           0x9d01d378          0x194         404   
.text._sbrk_init        0x9d01d50c          0x194         404   
.text._fputwc_r         0x9d01d6a0          0x184         388   
.text.__mdiff           0x9d01d824          0x180         384   
.text                   0x9d01d9a4          0x178         376  App's exec code 
.text.__smakebuf_r      0x9d01db1c          0x174         372   
.text.read              0x9d01dc90          0x174         372   
.text.scalbn            0x9d01de04          0x168         360   
.text.OSCConfig         0x9d01df6c          0x168         360   
.text.__swbuf_r         0x9d01e0d4          0x164         356   
.text.__d2b             0x9d01e238          0x138         312   
.text.__lshift          0x9d01e370          0x130         304   
.text.scalbnf           0x9d01e4a0          0x12c         300   
.text.__swsetup_r       0x9d01e5cc          0x128         296   
.text._malloc_trim_r    0x9d01e6f4          0x11c         284   
.text                   0x9d01e810          0x21c         540  App's exec code 
.text.__pow5mult        0x9d01ea2c          0x10c         268   
.text                   0x9d01eb38          0x10c         268  App's exec code 
.rodata.two_over_pi.two 0x9d01ec44          0x108         264   
.text.__multadd         0x9d01ed4c          0x104         260   
.text.__sprint_r        0x9d01ee50          0x100         256   
.text                   0x9d01ef50           0xf8         248  App's exec code 
.text.floorf            0x9d01f048           0xf8         248   
.text                   0x9d01f140           0xf4         244  App's exec code 
.text._fclose_r         0x9d01f234           0xf4         244   
.text.sin               0x9d01f328           0xec         236   
.text.cos               0x9d01f414           0xe4         228   
.text                   0x9d01f4f8          0x1b4         436  App's exec code 
.text._mon_putc         0x9d01f6ac           0xd0         208   
.text.sinf              0x9d01f77c           0xcc         204   
.rodata.__mprec_tens.__ 0x9d01f848           0xc8         200   
.text.cosf              0x9d01f910           0xc4         196   
.text._sbrk             0x9d01f9d4           0xc4         196   
.text                   0x9d01fa98           0xb8         184  App's exec code 
.text.__lo0bits         0x9d01fb50           0xb8         184   
.text._raise_r          0x9d01fc08           0xb4         180   
.text._Balloc           0x9d01fcbc           0xac         172   
.text._calloc_r         0x9d01fd68           0xa4         164   
.text._fwalk            0x9d01fe0c           0x9c         156   
.text._wcrtomb_r        0x9d01fea8           0x98         152   
.text.write             0x9d01ff40           0x94         148   
.text.tan               0x9d01ffd4           0x90         144   
.rodata                 0x9d020064            0x4           4  Read-only const 
.rodata                 0x9d020068           0x88         136  Read-only const 
.text.__fpclassifyd     0x9d0200f0           0x84         132   
.rodata.npio2_hw.npio2_ 0x9d020174          0x100         256   
.rodata                 0x9d020274           0x7c         124  Read-only const 
.text.__swrite          0x9d0202f0           0x7c         124   
.text                   0x9d02036c          0x168         360  App's exec code 
.text.memmove           0x9d0204d4           0x78         120   
.text.__hi0bits         0x9d02054c           0x78         120   
.text                   0x9d0205c4          0x13c         316  App's exec code 
.text.__mcmp            0x9d020700           0x68         104   
.rodata                 0x9d020768           0x60          96  Read-only const 
.text.__assert_func     0x9d0207c8           0x58          88   
.text.__sseek           0x9d020820           0x50          80   
.text.sbrk              0x9d020870           0x50          80   
.text.__sread           0x9d0208c0           0x4c          76   
.text._write_r          0x9d02090c           0x4c          76   
.text._lseek_r          0x9d020958           0x4c          76   
.text._read_r           0x9d0209a4           0x4c          76   
.rodata                 0x9d0209f0           0x90         144  Read-only const 
.text._kill_r           0x9d020a80           0x48          72   
.text._fstat_r          0x9d020ac8           0x48          72   
.text                   0x9d020b10           0x44          68  App's exec code 
.rodata                 0x9d020b54           0x44          68  Read-only const 
.text._sbrk_r           0x9d020b98           0x44          68   
.text._close_r          0x9d020bdc           0x44          68   
.text._isatty_r         0x9d020c20           0x44          68   
.text                   0x9d020c64           0x44          68  App's exec code 
.rodata.PIo2.PIo2       0x9d020ca8           0x40          64   
.rodata                 0x9d020ce8           0x3c          60  Read-only const 
.rodata                 0x9d020d24            0x4           4  Read-only const 
.rodata                 0x9d020d28           0x38          56  Read-only const 
.text.fiprintf          0x9d020d60           0x38          56   
.text.printf            0x9d020d98           0x38          56   
.text._bootstrap_except 0x9d020dd0           0x38          56   
.text.main_entry        0x9d020e08           0x34          52   
.text.__i2b             0x9d020e3c           0x34          52   
.text.__ascii_wctomb    0x9d020e70           0x34          52   
.rodata                 0x9d020ea8           0x60          96  Read-only const 
.text.memchr            0x9d020f08           0x30          48   
.text.memcpy            0x9d020f38           0x30          48   
.vector_default         0x9d020f68           0x30          48   
.rodata.PIo2.PIo2       0x9d020f98           0x2c          44   
.text._Bfree            0x9d020fc4           0x2c          44   
.text._stub_sbd_memlayo 0x9d020ff0           0x2c          44   
.rodata                 0x9d021020           0x50          80  Read-only const 
.text.memset            0x9d021070           0x28          40   
.rodata.__mprec_bigtens 0x9d021098           0x28          40   
.rodata                 0x9d0210c0           0x84         132  Read-only const 
.text.copysign          0x9d021144           0x1c          28   
.text.INTRestoreInterru 0x9d021160           0x1c          28   
.rodata                 0x9d02117c           0x18          24  Read-only const 
.text.abort             0x9d021194           0x18          24   
.text                   0x9d0211ac           0x30          48  App's exec code 
.text.copysignf         0x9d0211dc           0x14          20   
.rodata                 0x9d0211f0           0x14          20  Read-only const 
.text.fstat             0x9d021204           0x14          20   
.rodata.init_jk.init_jk 0x9d021218           0x10          16   
.text.fabs              0x9d021228           0x10          16   
.rodata                 0x9d021238           0x10          16  Read-only const 
.rodata.zeroes.3920.zer 0x9d021248           0x10          16   
.rodata.blanks.3919.bla 0x9d021258           0x10          16   
.rodata.zeroes.3977.zer 0x9d021268           0x10          16   
.rodata.blanks.3976.bla 0x9d021278           0x10          16   
.rodata                 0x9d021288            0xc          12  Read-only const 
.rodata.init_jk.init_jk 0x9d021294            0xc          12   
.text._cleanup_r        0x9d0212a0            0xc          12   
.text.__locale_charset  0x9d0212ac            0xc          12   
.text._localeconv_r     0x9d0212b8            0xc          12   
.rodata.p05.2491.p05    0x9d0212c4            0xc          12   
.text.raise             0x9d0212d0            0xc          12   
.text.fclose            0x9d0212dc            0xc          12   
.text.fabsf             0x9d0212e8            0x8           8   
.rodata                 0x9d0212f0            0x8           8  Read-only const 
.text.__locale_mb_cur_m 0x9d0212f8            0x8           8   
.text.__malloc_lock     0x9d021300            0x8           8   
.text.__malloc_unlock   0x9d021308            0x8           8   
.text._getpid_r         0x9d021310            0x8           8   
.text.__sclose          0x9d021318            0x8           8   
.text._on_reset         0x9d021320            0x8           8   
.text._on_bootstrap     0x9d021328            0x8           8   
.text._exit             0x9d021330            0x8           8   
.text.isatty            0x9d021338            0x8           8   
.text.lseek             0x9d021340            0x8           8   
.text.close             0x9d021348            0x8           8   
.text.kill              0x9d021350            0x8           8   
.text.getpid            0x9d021358            0x8           8   
.text.INTDisableInterru 0x9d021360            0x8           8   
.text.__errno           0x9d021368            0x8           8   
      Total kseg0_program_mem used  :     0x19ed8      106200  45.7% of 0x38b70

kseg0 Boot-Memory Usage
section                    address  length [bytes]      (dec)  Description
-------                 ----------  -------------------------  -----------
         Total kseg0_boot_mem used  :           0           0  

Exception-Memory Usage 
section                    address  length [bytes]      (dec)  Description
-------                 ----------  -------------------------  -----------
.app_excpt              0x9d006180           0x10          16  General-Exception 
.vector_0               0x9d006200            0x8           8  Interrupt Vector 0 
.vector_1               0x9d006220            0x8           8  Interrupt Vector 1 
.vector_2               0x9d006240            0x8           8  Interrupt Vector 2 
.vector_3               0x9d006260            0x8           8  Interrupt Vector 3 
.vector_4               0x9d006280            0x8           8  Interrupt Vector 4 
.vector_5               0x9d0062a0            0x8           8  Interrupt Vector 5 
.vector_6               0x9d0062c0            0x8           8  Interrupt Vector 6 
.vector_7               0x9d0062e0            0x8           8  Interrupt Vector 7 
.vector_8               0x9d006300            0x8           8  Interrupt Vector 8 
.vector_9               0x9d006320            0x8           8  Interrupt Vector 9 
.vector_10              0x9d006340            0x8           8  Interrupt Vector 10 
.vector_11              0x9d006360            0x8           8  Interrupt Vector 11 
.vector_12              0x9d006380            0x8           8  Interrupt Vector 12 
.vector_13              0x9d0063a0            0x8           8  Interrupt Vector 13 
.vector_14              0x9d0063c0            0x8           8  Interrupt Vector 14 
.vector_15              0x9d0063e0            0x8           8  Interrupt Vector 15 
.vector_16              0x9d006400            0x8           8  Interrupt Vector 16 
.vector_17              0x9d006420            0x8           8  Interrupt Vector 17 
.vector_18              0x9d006440            0x8           8  Interrupt Vector 18 
.vector_19              0x9d006460            0x8           8  Interrupt Vector 19 
.vector_20              0x9d006480            0x8           8  Interrupt Vector 20 
.vector_21              0x9d0064a0            0x8           8  Interrupt Vector 21 
.vector_22              0x9d0064c0            0x8           8  Interrupt Vector 22 
.vector_23              0x9d0064e0            0x8           8  Interrupt Vector 23 
.vector_24              0x9d006500            0x8           8  Interrupt Vector 24 
.vector_25              0x9d006520            0x8           8  Interrupt Vector 25 
.vector_26              0x9d006540            0x8           8  Interrupt Vector 26 
.vector_27              0x9d006560            0x8           8  Interrupt Vector 27 
.vector_28              0x9d006580            0x8           8  Interrupt Vector 28 
.vector_29              0x9d0065a0            0x8           8  Interrupt Vector 29 
.vector_30              0x9d0065c0            0x8           8  Interrupt Vector 30 
.vector_31              0x9d0065e0            0x8           8  Interrupt Vector 31 
.vector_32              0x9d006600            0x8           8  Interrupt Vector 32 
.vector_33              0x9d006620            0x8           8  Interrupt Vector 33 
.vector_34              0x9d006640            0x8           8  Interrupt Vector 34 
.vector_35              0x9d006660            0x8           8  Interrupt Vector 35 
.vector_36              0x9d006680            0x8           8  Interrupt Vector 36 
.vector_37              0x9d0066a0            0x8           8  Interrupt Vector 37 
.vector_38              0x9d0066c0            0x8           8  Interrupt Vector 38 
.vector_39              0x9d0066e0            0x8           8  Interrupt Vector 39 
.vector_40              0x9d006700            0x8           8  Interrupt Vector 40 
.vector_41              0x9d006720            0x8           8  Interrupt Vector 41 
.vector_42              0x9d006740            0x8           8  Interrupt Vector 42 
.vector_43              0x9d006760            0x8           8  Interrupt Vector 43 
.vector_44              0x9d006780            0x8           8  Interrupt Vector 44 
.vector_45              0x9d0067a0            0x8           8  Interrupt Vector 45 
.vector_46              0x9d0067c0            0x8           8  Interrupt Vector 46 
.vector_47              0x9d0067e0            0x8           8  Interrupt Vector 47 
.vector_48              0x9d006800            0x8           8  Interrupt Vector 48 
.vector_49              0x9d006820            0x8           8  Interrupt Vector 49 
.vector_50              0x9d006840            0x8           8  Interrupt Vector 50 
.vector_51              0x9d006860            0x8           8  Interrupt Vector 51 
.vector_52              0x9d006880            0x8           8  Interrupt Vector 52 
.vector_53              0x9d0068a0            0x8           8  Interrupt Vector 53 
.vector_54              0x9d0068c0            0x8           8  Interrupt Vector 54 
.vector_55              0x9d0068e0            0x8           8  Interrupt Vector 55 
.vector_56              0x9d006900            0x8           8  Interrupt Vector 56 
.vector_57              0x9d006920            0x8           8  Interrupt Vector 57 
.vector_58              0x9d006940            0x8           8  Interrupt Vector 58 
.vector_59              0x9d006960            0x8           8  Interrupt Vector 59 
.vector_60              0x9d006980            0x8           8  Interrupt Vector 60 
.vector_61              0x9d0069a0            0x8           8  Interrupt Vector 61 
.vector_62              0x9d0069c0            0x8           8  Interrupt Vector 62 
.vector_63              0x9d0069e0            0x8           8  Interrupt Vector 63 
          Total exception_mem used  :       0x210         528  12.9% of 0x1000

kseg1 Boot-Memory Usage
section                    address  length [bytes]      (dec)  Description
-------                 ----------  -------------------------  -----------
.reset                  0x9d007000            0x8           8  Reset handler 
.bev_excpt              0x9d007380           0x10          16  BEV-Exception 
         Total kseg1_boot_mem used  :        0x18          24  2.1% of 0x490
        --------------------------------------------------------------------------
         Total Program Memory used  :     0x1a100      106752  44.9% of 0x3a000
        --------------------------------------------------------------------------


kseg1 Data-Memory Usage
section                    address  length [bytes]      (dec)  Description
-------                 ----------  -------------------------  -----------
.jcr                    0xa0000000            0x4           4   
.eh_frame               0xa0000004           0x54          84   
.sdata                  0xa0000058           0x30          48  Small init data 
.sbss                   0xa0000088           0x3c          60  Small uninit data 
.bss                    0xa00000c4         0x4d44       19780  Uninitialized data 
.data.impure_data.impur 0xa0004e08          0x418        1048   
.data.__malloc_av_.__ma 0xa0005220          0x408        1032   
.data.lconv.lconv       0xa0005628           0x38          56   
.bss.__malloc_current_m 0xa0005660           0x28          40   
.bss                    0xa0005688           0x20          32  Uninitialized data 
.data.lc_ctype_charset. 0xa00056a8           0x20          32   
.bss.mem.1180.mem       0xa00056c8           0x18          24   
.bss.curbrk.curbrk      0xa00056e0            0x4           4   
         Total kseg1_data_mem used  :      0x56e4       22244  33.9% of 0x10000
        --------------------------------------------------------------------------
            Total Data Memory used  :      0x56e4       22244  33.9% of 0x10000
        --------------------------------------------------------------------------


Dynamic Data-Memory Reservation
section                    address  length [bytes]      (dec)  Description
-------                 ----------  -------------------------  -----------
heap                    0xa00056e8          0x200         512  Reserved for heap 
stack                   0xa0005900         0xa6f0       42736  Reserved for stack 

        --------------------------------------------------------------------------

Discarded input sections

 .text          0x00000000     0x3274 obj/ff.o
 .data          0x00000000        0x0 obj/ff.o
 .bss           0x00000000        0x0 obj/ff.o
 .rodata        0x00000000       0x10 obj/ff.o
 .text          0x00000000     0x14a0 obj/mmc_xmega.o
 .data          0x00000000      0x200 obj/mmc_xmega.o
 .bss           0x00000000        0x0 obj/mmc_xmega.o
 .reginfo       0x00000000       0x18 obj/mmc_xmega.o
 .data          0x00000000        0x0 obj/graphicdraw.o
 .bss           0x00000000        0x0 obj/graphicdraw.o
 .reginfo       0x00000000       0x18 obj/graphicdraw.o
 .text          0x00000000        0x0 obj/graphiclib.o
 .data          0x00000000        0x0 obj/graphiclib.o
 .bss           0x00000000        0x0 obj/graphiclib.o
 .reginfo       0x00000000       0x18 obj/graphiclib.o
 .data          0x00000000        0x0 obj/matrix4.o
 .bss           0x00000000        0x0 obj/matrix4.o
 .reginfo       0x00000000       0x18 obj/matrix4.o
 .data          0x00000000        0x0 obj/maze.o
 .reginfo       0x00000000       0x18 obj/maze.o
 .data          0x00000000        0x0 obj/newmain.o
 .reginfo       0x00000000       0x18 obj/newmain.o
 .data          0x00000000        0x0 obj/triangle.o
 .bss           0x00000000        0x0 obj/triangle.o
 .reginfo       0x00000000       0x18 obj/triangle.o
 .data          0x00000000        0x0 obj/vector2.o
 .bss           0x00000000        0x0 obj/vector2.o
 .reginfo       0x00000000       0x18 obj/vector2.o
 .data          0x00000000        0x0 obj/vector3.o
 .bss           0x00000000        0x0 obj/vector3.o
 .reginfo       0x00000000       0x18 obj/vector3.o
 .text          0x00000000        0x0 obj/crti.o
 .data          0x00000000        0x0 obj/crti.o
 .bss           0x00000000        0x0 obj/crti.o
 .reginfo       0x00000000       0x18 obj/crti.o
 .text          0x00000000        0x0 obj/crtn.o
 .data          0x00000000        0x0 obj/crtn.o
 .bss           0x00000000        0x0 obj/crtn.o
 .reginfo       0x00000000       0x18 obj/crtn.o
 .text          0x00000000        0x0 obj/crt0.o
 .data          0x00000000        0x0 obj/crt0.o
 .bss           0x00000000        0x0 obj/crt0.o
 .reginfo       0x00000000       0x18 obj/crt0.o
 .data          0x00000000        0x4 ../../pic32/compiler/pic32-tools/bin/../lib/gcc/pic32mx/4.5.2/crtbegin.o
 .reginfo       0x00000000       0x18 ../../pic32/compiler/pic32-tools/bin/../lib/gcc/pic32mx/4.5.2/crtbegin.o
 .rodata        0x00000000        0x8 ../../pic32/compiler/pic32-tools/bin/../lib/gcc/pic32mx/4.5.2/crtbegin.o
 .data          0x00000000        0x4 ../../pic32/compiler/pic32-tools/bin/../lib/gcc/pic32mx/4.5.2/crtend.o
 .bss           0x00000000        0x0 ../../pic32/compiler/pic32-tools/bin/../lib/gcc/pic32mx/4.5.2/crtend.o
 .reginfo       0x00000000       0x18 ../../pic32/compiler/pic32-tools/bin/../lib/gcc/pic32mx/4.5.2/crtend.o
 .rodata        0x00000000        0x8 ../../pic32/compiler/pic32-tools/bin/../lib/gcc/pic32mx/4.5.2/crtend.o
 .text          0x00000000        0x0 ../../pic32/compiler/pic32-tools/bin/../lib/gcc/pic32mx/4.5.2/../../../../pic32mx/lib\libm.a(lib_a-s_cos.o)
 .data          0x00000000        0x0 ../../pic32/compiler/pic32-tools/bin/../lib/gcc/pic32mx/4.5.2/../../../../pic32mx/lib\libm.a(lib_a-s_cos.o)
 .bss           0x00000000        0x0 ../../pic32/compiler/pic32-tools/bin/../lib/gcc/pic32mx/4.5.2/../../../../pic32mx/lib\libm.a(lib_a-s_cos.o)
 .reginfo       0x00000000       0x18 ../../pic32/compiler/pic32-tools/bin/../lib/gcc/pic32mx/4.5.2/../../../../pic32mx/lib\libm.a(lib_a-s_cos.o)
 .text          0x00000000        0x0 ../../pic32/compiler/pic32-tools/bin/../lib/gcc/pic32mx/4.5.2/../../../../pic32mx/lib\libm.a(lib_a-sf_cos.o)
 .data          0x00000000        0x0 ../../pic32/compiler/pic32-tools/bin/../lib/gcc/pic32mx/4.5.2/../../../../pic32mx/lib\libm.a(lib_a-sf_cos.o)
 .bss           0x00000000        0x0 ../../pic32/compiler/pic32-tools/bin/../lib/gcc/pic32mx/4.5.2/../../../../pic32mx/lib\libm.a(lib_a-sf_cos.o)
 .reginfo       0x00000000       0x18 ../../pic32/compiler/pic32-tools/bin/../lib/gcc/pic32mx/4.5.2/../../../../pic32mx/lib\libm.a(lib_a-sf_cos.o)
 .text          0x00000000        0x0 ../../pic32/compiler/pic32-tools/bin/../lib/gcc/pic32mx/4.5.2/../../../../pic32mx/lib\libm.a(lib_a-sf_sin.o)
 .data          0x00000000        0x0 ../../pic32/compiler/pic32-tools/bin/../lib/gcc/pic32mx/4.5.2/../../../../pic32mx/lib\libm.a(lib_a-sf_sin.o)
 .bss           0x00000000        0x0 ../../pic32/compiler/pic32-tools/bin/../lib/gcc/pic32mx/4.5.2/../../../../pic32mx/lib\libm.a(lib_a-sf_sin.o)
 .reginfo       0x00000000       0x18 ../../pic32/compiler/pic32-tools/bin/../lib/gcc/pic32mx/4.5.2/../../../../pic32mx/lib\libm.a(lib_a-sf_sin.o)
 .text          0x00000000        0x0 ../../pic32/compiler/pic32-tools/bin/../lib/gcc/pic32mx/4.5.2/../../../../pic32mx/lib\libm.a(lib_a-s_sin.o)
 .data          0x00000000        0x0 ../../pic32/compiler/pic32-tools/bin/../lib/gcc/pic32mx/4.5.2/../../../../pic32mx/lib\libm.a(lib_a-s_sin.o)
 .bss           0x00000000        0x0 ../../pic32/compiler/pic32-tools/bin/../lib/gcc/pic32mx/4.5.2/../../../../pic32mx/lib\libm.a(lib_a-s_sin.o)
 .reginfo       0x00000000       0x18 ../../pic32/compiler/pic32-tools/bin/../lib/gcc/pic32mx/4.5.2/../../../../pic32mx/lib\libm.a(lib_a-s_sin.o)
 .text          0x00000000        0x0 ../../pic32/compiler/pic32-tools/bin/../lib/gcc/pic32mx/4.5.2/../../../../pic32mx/lib\libm.a(lib_a-s_tan.o)
 .data          0x00000000        0x0 ../../pic32/compiler/pic32-tools/bin/../lib/gcc/pic32mx/4.5.2/../../../../pic32mx/lib\libm.a(lib_a-s_tan.o)
 .bss           0x00000000        0x0 ../../pic32/compiler/pic32-tools/bin/../lib/gcc/pic32mx/4.5.2/../../../../pic32mx/lib\libm.a(lib_a-s_tan.o)
 .reginfo       0x00000000       0x18 ../../pic32/compiler/pic32-tools/bin/../lib/gcc/pic32mx/4.5.2/../../../../pic32mx/lib\libm.a(lib_a-s_tan.o)
 .text          0x00000000        0x0 ../../pic32/compiler/pic32-tools/bin/../lib/gcc/pic32mx/4.5.2/../../../../pic32mx/lib\libm.a(lib_a-ef_rem_pio2.o)
 .data          0x00000000        0x0 ../../pic32/compiler/pic32-tools/bin/../lib/gcc/pic32mx/4.5.2/../../../../pic32mx/lib\libm.a(lib_a-ef_rem_pio2.o)
 .bss           0x00000000        0x0 ../../pic32/compiler/pic32-tools/bin/../lib/gcc/pic32mx/4.5.2/../../../../pic32mx/lib\libm.a(lib_a-ef_rem_pio2.o)
 .reginfo       0x00000000       0x18 ../../pic32/compiler/pic32-tools/bin/../lib/gcc/pic32mx/4.5.2/../../../../pic32mx/lib\libm.a(lib_a-ef_rem_pio2.o)
 .text          0x00000000        0x0 ../../pic32/compiler/pic32-tools/bin/../lib/gcc/pic32mx/4.5.2/../../../../pic32mx/lib\libm.a(lib_a-e_rem_pio2.o)
 .data          0x00000000        0x0 ../../pic32/compiler/pic32-tools/bin/../lib/gcc/pic32mx/4.5.2/../../../../pic32mx/lib\libm.a(lib_a-e_rem_pio2.o)
 .bss           0x00000000        0x0 ../../pic32/compiler/pic32-tools/bin/../lib/gcc/pic32mx/4.5.2/../../../../pic32mx/lib\libm.a(lib_a-e_rem_pio2.o)
 .reginfo       0x00000000       0x18 ../../pic32/compiler/pic32-tools/bin/../lib/gcc/pic32mx/4.5.2/../../../../pic32mx/lib\libm.a(lib_a-e_rem_pio2.o)
 .text          0x00000000        0x0 ../../pic32/compiler/pic32-tools/bin/../lib/gcc/pic32mx/4.5.2/../../../../pic32mx/lib\libm.a(lib_a-k_cos.o)
 .data          0x00000000        0x0 ../../pic32/compiler/pic32-tools/bin/../lib/gcc/pic32mx/4.5.2/../../../../pic32mx/lib\libm.a(lib_a-k_cos.o)
 .bss           0x00000000        0x0 ../../pic32/compiler/pic32-tools/bin/../lib/gcc/pic32mx/4.5.2/../../../../pic32mx/lib\libm.a(lib_a-k_cos.o)
 .reginfo       0x00000000       0x18 ../../pic32/compiler/pic32-tools/bin/../lib/gcc/pic32mx/4.5.2/../../../../pic32mx/lib\libm.a(lib_a-k_cos.o)
 .text          0x00000000        0x0 ../../pic32/compiler/pic32-tools/bin/../lib/gcc/pic32mx/4.5.2/../../../../pic32mx/lib\libm.a(lib_a-kf_cos.o)
 .data          0x00000000        0x0 ../../pic32/compiler/pic32-tools/bin/../lib/gcc/pic32mx/4.5.2/../../../../pic32mx/lib\libm.a(lib_a-kf_cos.o)
 .bss           0x00000000        0x0 ../../pic32/compiler/pic32-tools/bin/../lib/gcc/pic32mx/4.5.2/../../../../pic32mx/lib\libm.a(lib_a-kf_cos.o)
 .reginfo       0x00000000       0x18 ../../pic32/compiler/pic32-tools/bin/../lib/gcc/pic32mx/4.5.2/../../../../pic32mx/lib\libm.a(lib_a-kf_cos.o)
 .text          0x00000000        0x0 ../../pic32/compiler/pic32-tools/bin/../lib/gcc/pic32mx/4.5.2/../../../../pic32mx/lib\libm.a(lib_a-kf_rem_pio2.o)
 .data          0x00000000        0x0 ../../pic32/compiler/pic32-tools/bin/../lib/gcc/pic32mx/4.5.2/../../../../pic32mx/lib\libm.a(lib_a-kf_rem_pio2.o)
 .bss           0x00000000        0x0 ../../pic32/compiler/pic32-tools/bin/../lib/gcc/pic32mx/4.5.2/../../../../pic32mx/lib\libm.a(lib_a-kf_rem_pio2.o)
 .reginfo       0x00000000       0x18 ../../pic32/compiler/pic32-tools/bin/../lib/gcc/pic32mx/4.5.2/../../../../pic32mx/lib\libm.a(lib_a-kf_rem_pio2.o)
 .text          0x00000000        0x0 ../../pic32/compiler/pic32-tools/bin/../lib/gcc/pic32mx/4.5.2/../../../../pic32mx/lib\libm.a(lib_a-kf_sin.o)
 .data          0x00000000        0x0 ../../pic32/compiler/pic32-tools/bin/../lib/gcc/pic32mx/4.5.2/../../../../pic32mx/lib\libm.a(lib_a-kf_sin.o)
 .bss           0x00000000        0x0 ../../pic32/compiler/pic32-tools/bin/../lib/gcc/pic32mx/4.5.2/../../../../pic32mx/lib\libm.a(lib_a-kf_sin.o)
 .reginfo       0x00000000       0x18 ../../pic32/compiler/pic32-tools/bin/../lib/gcc/pic32mx/4.5.2/../../../../pic32mx/lib\libm.a(lib_a-kf_sin.o)
 .text          0x00000000        0x0 ../../pic32/compiler/pic32-tools/bin/../lib/gcc/pic32mx/4.5.2/../../../../pic32mx/lib\libm.a(lib_a-k_rem_pio2.o)
 .data          0x00000000        0x0 ../../pic32/compiler/pic32-tools/bin/../lib/gcc/pic32mx/4.5.2/../../../../pic32mx/lib\libm.a(lib_a-k_rem_pio2.o)
 .bss           0x00000000        0x0 ../../pic32/compiler/pic32-tools/bin/../lib/gcc/pic32mx/4.5.2/../../../../pic32mx/lib\libm.a(lib_a-k_rem_pio2.o)
 .reginfo       0x00000000       0x18 ../../pic32/compiler/pic32-tools/bin/../lib/gcc/pic32mx/4.5.2/../../../../pic32mx/lib\libm.a(lib_a-k_rem_pio2.o)
 .text          0x00000000        0x0 ../../pic32/compiler/pic32-tools/bin/../lib/gcc/pic32mx/4.5.2/../../../../pic32mx/lib\libm.a(lib_a-k_sin.o)
 .data          0x00000000        0x0 ../../pic32/compiler/pic32-tools/bin/../lib/gcc/pic32mx/4.5.2/../../../../pic32mx/lib\libm.a(lib_a-k_sin.o)
 .bss           0x00000000        0x0 ../../pic32/compiler/pic32-tools/bin/../lib/gcc/pic32mx/4.5.2/../../../../pic32mx/lib\libm.a(lib_a-k_sin.o)
 .reginfo       0x00000000       0x18 ../../pic32/compiler/pic32-tools/bin/../lib/gcc/pic32mx/4.5.2/../../../../pic32mx/lib\libm.a(lib_a-k_sin.o)
 .text          0x00000000        0x0 ../../pic32/compiler/pic32-tools/bin/../lib/gcc/pic32mx/4.5.2/../../../../pic32mx/lib\libm.a(lib_a-k_tan.o)
 .data          0x00000000        0x0 ../../pic32/compiler/pic32-tools/bin/../lib/gcc/pic32mx/4.5.2/../../../../pic32mx/lib\libm.a(lib_a-k_tan.o)
 .bss           0x00000000        0x0 ../../pic32/compiler/pic32-tools/bin/../lib/gcc/pic32mx/4.5.2/../../../../pic32mx/lib\libm.a(lib_a-k_tan.o)
 .reginfo       0x00000000       0x18 ../../pic32/compiler/pic32-tools/bin/../lib/gcc/pic32mx/4.5.2/../../../../pic32mx/lib\libm.a(lib_a-k_tan.o)
 .text          0x00000000        0x0 ../../pic32/compiler/pic32-tools/bin/../lib/gcc/pic32mx/4.5.2/../../../../pic32mx/lib\libm.a(lib_a-s_fabs.o)
 .data          0x00000000        0x0 ../../pic32/compiler/pic32-tools/bin/../lib/gcc/pic32mx/4.5.2/../../../../pic32mx/lib\libm.a(lib_a-s_fabs.o)
 .bss           0x00000000        0x0 ../../pic32/compiler/pic32-tools/bin/../lib/gcc/pic32mx/4.5.2/../../../../pic32mx/lib\libm.a(lib_a-s_fabs.o)
 .reginfo       0x00000000       0x18 ../../pic32/compiler/pic32-tools/bin/../lib/gcc/pic32mx/4.5.2/../../../../pic32mx/lib\libm.a(lib_a-s_fabs.o)
 .text          0x00000000        0x0 ../../pic32/compiler/pic32-tools/bin/../lib/gcc/pic32mx/4.5.2/../../../../pic32mx/lib\libm.a(lib_a-sf_fabs.o)
 .data          0x00000000        0x0 ../../pic32/compiler/pic32-tools/bin/../lib/gcc/pic32mx/4.5.2/../../../../pic32mx/lib\libm.a(lib_a-sf_fabs.o)
 .bss           0x00000000        0x0 ../../pic32/compiler/pic32-tools/bin/../lib/gcc/pic32mx/4.5.2/../../../../pic32mx/lib\libm.a(lib_a-sf_fabs.o)
 .reginfo       0x00000000       0x18 ../../pic32/compiler/pic32-tools/bin/../lib/gcc/pic32mx/4.5.2/../../../../pic32mx/lib\libm.a(lib_a-sf_fabs.o)
 .text          0x00000000        0x0 ../../pic32/compiler/pic32-tools/bin/../lib/gcc/pic32mx/4.5.2/../../../../pic32mx/lib\libm.a(lib_a-sf_floor.o)
 .data          0x00000000        0x0 ../../pic32/compiler/pic32-tools/bin/../lib/gcc/pic32mx/4.5.2/../../../../pic32mx/lib\libm.a(lib_a-sf_floor.o)
 .bss           0x00000000        0x0 ../../pic32/compiler/pic32-tools/bin/../lib/gcc/pic32mx/4.5.2/../../../../pic32mx/lib\libm.a(lib_a-sf_floor.o)
 .reginfo       0x00000000       0x18 ../../pic32/compiler/pic32-tools/bin/../lib/gcc/pic32mx/4.5.2/../../../../pic32mx/lib\libm.a(lib_a-sf_floor.o)
 .text          0x00000000        0x0 ../../pic32/compiler/pic32-tools/bin/../lib/gcc/pic32mx/4.5.2/../../../../pic32mx/lib\libm.a(lib_a-s_floor.o)
 .data          0x00000000        0x0 ../../pic32/compiler/pic32-tools/bin/../lib/gcc/pic32mx/4.5.2/../../../../pic32mx/lib\libm.a(lib_a-s_floor.o)
 .bss           0x00000000        0x0 ../../pic32/compiler/pic32-tools/bin/../lib/gcc/pic32mx/4.5.2/../../../../pic32mx/lib\libm.a(lib_a-s_floor.o)
 .reginfo       0x00000000       0x18 ../../pic32/compiler/pic32-tools/bin/../lib/gcc/pic32mx/4.5.2/../../../../pic32mx/lib\libm.a(lib_a-s_floor.o)
 .text          0x00000000        0x0 ../../pic32/compiler/pic32-tools/bin/../lib/gcc/pic32mx/4.5.2/../../../../pic32mx/lib\libm.a(lib_a-sf_scalbn.o)
 .data          0x00000000        0x0 ../../pic32/compiler/pic32-tools/bin/../lib/gcc/pic32mx/4.5.2/../../../../pic32mx/lib\libm.a(lib_a-sf_scalbn.o)
 .bss           0x00000000        0x0 ../../pic32/compiler/pic32-tools/bin/../lib/gcc/pic32mx/4.5.2/../../../../pic32mx/lib\libm.a(lib_a-sf_scalbn.o)
 .reginfo       0x00000000       0x18 ../../pic32/compiler/pic32-tools/bin/../lib/gcc/pic32mx/4.5.2/../../../../pic32mx/lib\libm.a(lib_a-sf_scalbn.o)
 .text          0x00000000        0x0 ../../pic32/compiler/pic32-tools/bin/../lib/gcc/pic32mx/4.5.2/../../../../pic32mx/lib\libm.a(lib_a-s_scalbn.o)
 .data          0x00000000        0x0 ../../pic32/compiler/pic32-tools/bin/../lib/gcc/pic32mx/4.5.2/../../../../pic32mx/lib\libm.a(lib_a-s_scalbn.o)
 .bss           0x00000000        0x0 ../../pic32/compiler/pic32-tools/bin/../lib/gcc/pic32mx/4.5.2/../../../../pic32mx/lib\libm.a(lib_a-s_scalbn.o)
 .reginfo       0x00000000       0x18 ../../pic32/compiler/pic32-tools/bin/../lib/gcc/pic32mx/4.5.2/../../../../pic32mx/lib\libm.a(lib_a-s_scalbn.o)
 .text          0x00000000        0x0 ../../pic32/compiler/pic32-tools/bin/../lib/gcc/pic32mx/4.5.2/../../../../pic32mx/lib\libm.a(lib_a-s_copysign.o)
 .data          0x00000000        0x0 ../../pic32/compiler/pic32-tools/bin/../lib/gcc/pic32mx/4.5.2/../../../../pic32mx/lib\libm.a(lib_a-s_copysign.o)
 .bss           0x00000000        0x0 ../../pic32/compiler/pic32-tools/bin/../lib/gcc/pic32mx/4.5.2/../../../../pic32mx/lib\libm.a(lib_a-s_copysign.o)
 .reginfo       0x00000000       0x18 ../../pic32/compiler/pic32-tools/bin/../lib/gcc/pic32mx/4.5.2/../../../../pic32mx/lib\libm.a(lib_a-s_copysign.o)
 .text          0x00000000        0x0 ../../pic32/compiler/pic32-tools/bin/../lib/gcc/pic32mx/4.5.2/../../../../pic32mx/lib\libm.a(lib_a-sf_copysign.o)
 .data          0x00000000        0x0 ../../pic32/compiler/pic32-tools/bin/../lib/gcc/pic32mx/4.5.2/../../../../pic32mx/lib\libm.a(lib_a-sf_copysign.o)
 .bss           0x00000000        0x0 ../../pic32/compiler/pic32-tools/bin/../lib/gcc/pic32mx/4.5.2/../../../../pic32mx/lib\libm.a(lib_a-sf_copysign.o)
 .reginfo       0x00000000       0x18 ../../pic32/compiler/pic32-tools/bin/../lib/gcc/pic32mx/4.5.2/../../../../pic32mx/lib\libm.a(lib_a-sf_copysign.o)
 .text          0x00000000        0x0 ../../pic32/compiler/pic32-tools/bin/../lib/gcc/pic32mx/4.5.2/../../../../pic32mx/lib/./proc/32MX250F128B\default_isr_vectors.o
 .data          0x00000000        0x0 ../../pic32/compiler/pic32-tools/bin/../lib/gcc/pic32mx/4.5.2/../../../../pic32mx/lib/./proc/32MX250F128B\default_isr_vectors.o
 .bss           0x00000000        0x0 ../../pic32/compiler/pic32-tools/bin/../lib/gcc/pic32mx/4.5.2/../../../../pic32mx/lib/./proc/32MX250F128B\default_isr_vectors.o
 .reginfo       0x00000000       0x18 ../../pic32/compiler/pic32-tools/bin/../lib/gcc/pic32mx/4.5.2/../../../../pic32mx/lib/./proc/32MX250F128B\default_isr_vectors.o
 .discard       0x00000000      0x100 ../../pic32/compiler/pic32-tools/bin/../lib/gcc/pic32mx/4.5.2/../../../../pic32mx/lib/./proc/32MX250F128B\default_isr_vectors.o
 .text          0x00000000        0x0 ../../pic32/compiler/pic32-tools/bin/../lib/gcc/pic32mx/4.5.2/../../../../pic32mx/lib/./proc/32MX250F128B\processor.o
 .data          0x00000000        0x0 ../../pic32/compiler/pic32-tools/bin/../lib/gcc/pic32mx/4.5.2/../../../../pic32mx/lib/./proc/32MX250F128B\processor.o
 .bss           0x00000000        0x0 ../../pic32/compiler/pic32-tools/bin/../lib/gcc/pic32mx/4.5.2/../../../../pic32mx/lib/./proc/32MX250F128B\processor.o
 .reginfo       0x00000000       0x18 ../../pic32/compiler/pic32-tools/bin/../lib/gcc/pic32mx/4.5.2/../../../../pic32mx/lib/./proc/32MX250F128B\processor.o
 .data          0x00000000        0x0 ../../pic32/compiler/pic32-tools/bin/../lib/gcc/pic32mx/4.5.2\libgcc.a(_divdi3.o)
 .bss           0x00000000        0x0 ../../pic32/compiler/pic32-tools/bin/../lib/gcc/pic32mx/4.5.2\libgcc.a(_divdi3.o)
 .reginfo       0x00000000       0x18 ../../pic32/compiler/pic32-tools/bin/../lib/gcc/pic32mx/4.5.2\libgcc.a(_divdi3.o)
 .data          0x00000000        0x0 ../../pic32/compiler/pic32-tools/bin/../lib/gcc/pic32mx/4.5.2\libgcc.a(addsf3.o)
 .bss           0x00000000        0x0 ../../pic32/compiler/pic32-tools/bin/../lib/gcc/pic32mx/4.5.2\libgcc.a(addsf3.o)
 .reginfo       0x00000000       0x18 ../../pic32/compiler/pic32-tools/bin/../lib/gcc/pic32mx/4.5.2\libgcc.a(addsf3.o)
 .data          0x00000000        0x0 ../../pic32/compiler/pic32-tools/bin/../lib/gcc/pic32mx/4.5.2\libgcc.a(eqsf2.o)
 .bss           0x00000000        0x0 ../../pic32/compiler/pic32-tools/bin/../lib/gcc/pic32mx/4.5.2\libgcc.a(eqsf2.o)
 .reginfo       0x00000000       0x18 ../../pic32/compiler/pic32-tools/bin/../lib/gcc/pic32mx/4.5.2\libgcc.a(eqsf2.o)
 .data          0x00000000        0x0 ../../pic32/compiler/pic32-tools/bin/../lib/gcc/pic32mx/4.5.2\libgcc.a(gesf2.o)
 .bss           0x00000000        0x0 ../../pic32/compiler/pic32-tools/bin/../lib/gcc/pic32mx/4.5.2\libgcc.a(gesf2.o)
 .reginfo       0x00000000       0x18 ../../pic32/compiler/pic32-tools/bin/../lib/gcc/pic32mx/4.5.2\libgcc.a(gesf2.o)
 .data          0x00000000        0x0 ../../pic32/compiler/pic32-tools/bin/../lib/gcc/pic32mx/4.5.2\libgcc.a(mulsf3.o)
 .bss           0x00000000        0x0 ../../pic32/compiler/pic32-tools/bin/../lib/gcc/pic32mx/4.5.2\libgcc.a(mulsf3.o)
 .reginfo       0x00000000       0x18 ../../pic32/compiler/pic32-tools/bin/../lib/gcc/pic32mx/4.5.2\libgcc.a(mulsf3.o)
 .data          0x00000000        0x0 ../../pic32/compiler/pic32-tools/bin/../lib/gcc/pic32mx/4.5.2\libgcc.a(subsf3.o)
 .bss           0x00000000        0x0 ../../pic32/compiler/pic32-tools/bin/../lib/gcc/pic32mx/4.5.2\libgcc.a(subsf3.o)
 .reginfo       0x00000000       0x18 ../../pic32/compiler/pic32-tools/bin/../lib/gcc/pic32mx/4.5.2\libgcc.a(subsf3.o)
 .data          0x00000000        0x0 ../../pic32/compiler/pic32-tools/bin/../lib/gcc/pic32mx/4.5.2\libgcc.a(fixsfsi.o)
 .bss           0x00000000        0x0 ../../pic32/compiler/pic32-tools/bin/../lib/gcc/pic32mx/4.5.2\libgcc.a(fixsfsi.o)
 .reginfo       0x00000000       0x18 ../../pic32/compiler/pic32-tools/bin/../lib/gcc/pic32mx/4.5.2\libgcc.a(fixsfsi.o)
 .data          0x00000000        0x0 ../../pic32/compiler/pic32-tools/bin/../lib/gcc/pic32mx/4.5.2\libgcc.a(floatsisf.o)
 .bss           0x00000000        0x0 ../../pic32/compiler/pic32-tools/bin/../lib/gcc/pic32mx/4.5.2\libgcc.a(floatsisf.o)
 .reginfo       0x00000000       0x18 ../../pic32/compiler/pic32-tools/bin/../lib/gcc/pic32mx/4.5.2\libgcc.a(floatsisf.o)
 .data          0x00000000        0x0 ../../pic32/compiler/pic32-tools/bin/../lib/gcc/pic32mx/4.5.2\libgcc.a(floatunsisf.o)
 .bss           0x00000000        0x0 ../../pic32/compiler/pic32-tools/bin/../lib/gcc/pic32mx/4.5.2\libgcc.a(floatunsisf.o)
 .reginfo       0x00000000       0x18 ../../pic32/compiler/pic32-tools/bin/../lib/gcc/pic32mx/4.5.2\libgcc.a(floatunsisf.o)
 .data          0x00000000        0x0 ../../pic32/compiler/pic32-tools/bin/../lib/gcc/pic32mx/4.5.2\libgcc.a(adddf3.o)
 .bss           0x00000000        0x0 ../../pic32/compiler/pic32-tools/bin/../lib/gcc/pic32mx/4.5.2\libgcc.a(adddf3.o)
 .reginfo       0x00000000       0x18 ../../pic32/compiler/pic32-tools/bin/../lib/gcc/pic32mx/4.5.2\libgcc.a(adddf3.o)
 .data          0x00000000        0x0 ../../pic32/compiler/pic32-tools/bin/../lib/gcc/pic32mx/4.5.2\libgcc.a(divdf3.o)
 .bss           0x00000000        0x0 ../../pic32/compiler/pic32-tools/bin/../lib/gcc/pic32mx/4.5.2\libgcc.a(divdf3.o)
 .reginfo       0x00000000       0x18 ../../pic32/compiler/pic32-tools/bin/../lib/gcc/pic32mx/4.5.2\libgcc.a(divdf3.o)
 .data          0x00000000        0x0 ../../pic32/compiler/pic32-tools/bin/../lib/gcc/pic32mx/4.5.2\libgcc.a(eqdf2.o)
 .bss           0x00000000        0x0 ../../pic32/compiler/pic32-tools/bin/../lib/gcc/pic32mx/4.5.2\libgcc.a(eqdf2.o)
 .reginfo       0x00000000       0x18 ../../pic32/compiler/pic32-tools/bin/../lib/gcc/pic32mx/4.5.2\libgcc.a(eqdf2.o)
 .data          0x00000000        0x0 ../../pic32/compiler/pic32-tools/bin/../lib/gcc/pic32mx/4.5.2\libgcc.a(gedf2.o)
 .bss           0x00000000        0x0 ../../pic32/compiler/pic32-tools/bin/../lib/gcc/pic32mx/4.5.2\libgcc.a(gedf2.o)
 .reginfo       0x00000000       0x18 ../../pic32/compiler/pic32-tools/bin/../lib/gcc/pic32mx/4.5.2\libgcc.a(gedf2.o)
 .data          0x00000000        0x0 ../../pic32/compiler/pic32-tools/bin/../lib/gcc/pic32mx/4.5.2\libgcc.a(muldf3.o)
 .bss           0x00000000        0x0 ../../pic32/compiler/pic32-tools/bin/../lib/gcc/pic32mx/4.5.2\libgcc.a(muldf3.o)
 .reginfo       0x00000000       0x18 ../../pic32/compiler/pic32-tools/bin/../lib/gcc/pic32mx/4.5.2\libgcc.a(muldf3.o)
 .data          0x00000000        0x0 ../../pic32/compiler/pic32-tools/bin/../lib/gcc/pic32mx/4.5.2\libgcc.a(subdf3.o)
 .bss           0x00000000        0x0 ../../pic32/compiler/pic32-tools/bin/../lib/gcc/pic32mx/4.5.2\libgcc.a(subdf3.o)
 .reginfo       0x00000000       0x18 ../../pic32/compiler/pic32-tools/bin/../lib/gcc/pic32mx/4.5.2\libgcc.a(subdf3.o)
 .data          0x00000000        0x0 ../../pic32/compiler/pic32-tools/bin/../lib/gcc/pic32mx/4.5.2\libgcc.a(fixdfsi.o)
 .bss           0x00000000        0x0 ../../pic32/compiler/pic32-tools/bin/../lib/gcc/pic32mx/4.5.2\libgcc.a(fixdfsi.o)
 .reginfo       0x00000000       0x18 ../../pic32/compiler/pic32-tools/bin/../lib/gcc/pic32mx/4.5.2\libgcc.a(fixdfsi.o)
 .data          0x00000000        0x0 ../../pic32/compiler/pic32-tools/bin/../lib/gcc/pic32mx/4.5.2\libgcc.a(floatsidf.o)
 .bss           0x00000000        0x0 ../../pic32/compiler/pic32-tools/bin/../lib/gcc/pic32mx/4.5.2\libgcc.a(floatsidf.o)
 .reginfo       0x00000000       0x18 ../../pic32/compiler/pic32-tools/bin/../lib/gcc/pic32mx/4.5.2\libgcc.a(floatsidf.o)
 .data          0x00000000        0x0 ../../pic32/compiler/pic32-tools/bin/../lib/gcc/pic32mx/4.5.2\libgcc.a(floatunsidf.o)
 .bss           0x00000000        0x0 ../../pic32/compiler/pic32-tools/bin/../lib/gcc/pic32mx/4.5.2\libgcc.a(floatunsidf.o)
 .reginfo       0x00000000       0x18 ../../pic32/compiler/pic32-tools/bin/../lib/gcc/pic32mx/4.5.2\libgcc.a(floatunsidf.o)
 .data          0x00000000        0x0 ../../pic32/compiler/pic32-tools/bin/../lib/gcc/pic32mx/4.5.2\libgcc.a(extendsfdf2.o)
 .bss           0x00000000        0x0 ../../pic32/compiler/pic32-tools/bin/../lib/gcc/pic32mx/4.5.2\libgcc.a(extendsfdf2.o)
 .reginfo       0x00000000       0x18 ../../pic32/compiler/pic32-tools/bin/../lib/gcc/pic32mx/4.5.2\libgcc.a(extendsfdf2.o)
 .data          0x00000000        0x0 ../../pic32/compiler/pic32-tools/bin/../lib/gcc/pic32mx/4.5.2\libgcc.a(truncdfsf2.o)
 .bss           0x00000000        0x0 ../../pic32/compiler/pic32-tools/bin/../lib/gcc/pic32mx/4.5.2\libgcc.a(truncdfsf2.o)
 .reginfo       0x00000000       0x18 ../../pic32/compiler/pic32-tools/bin/../lib/gcc/pic32mx/4.5.2\libgcc.a(truncdfsf2.o)
 .text          0x00000000        0x0 ../../pic32/compiler/pic32-tools/bin/../lib/gcc/pic32mx/4.5.2/../../../../pic32mx/lib\libc.a(lib_a-assert.o)
 .data          0x00000000        0x0 ../../pic32/compiler/pic32-tools/bin/../lib/gcc/pic32mx/4.5.2/../../../../pic32mx/lib\libc.a(lib_a-assert.o)
 .bss           0x00000000        0x0 ../../pic32/compiler/pic32-tools/bin/../lib/gcc/pic32mx/4.5.2/../../../../pic32mx/lib\libc.a(lib_a-assert.o)
 .reginfo       0x00000000       0x18 ../../pic32/compiler/pic32-tools/bin/../lib/gcc/pic32mx/4.5.2/../../../../pic32mx/lib\libc.a(lib_a-assert.o)
 .text.__assert
                0x00000000       0x14 ../../pic32/compiler/pic32-tools/bin/../lib/gcc/pic32mx/4.5.2/../../../../pic32mx/lib\libc.a(lib_a-assert.o)
 .text          0x00000000        0x0 ../../pic32/compiler/pic32-tools/bin/../lib/gcc/pic32mx/4.5.2/../../../../pic32mx/lib\libc.a(lib_a-fiprintf.o)
 .data          0x00000000        0x0 ../../pic32/compiler/pic32-tools/bin/../lib/gcc/pic32mx/4.5.2/../../../../pic32mx/lib\libc.a(lib_a-fiprintf.o)
 .bss           0x00000000        0x0 ../../pic32/compiler/pic32-tools/bin/../lib/gcc/pic32mx/4.5.2/../../../../pic32mx/lib\libc.a(lib_a-fiprintf.o)
 .reginfo       0x00000000       0x18 ../../pic32/compiler/pic32-tools/bin/../lib/gcc/pic32mx/4.5.2/../../../../pic32mx/lib\libc.a(lib_a-fiprintf.o)
 .text._fiprintf_r
                0x00000000       0x24 ../../pic32/compiler/pic32-tools/bin/../lib/gcc/pic32mx/4.5.2/../../../../pic32mx/lib\libc.a(lib_a-fiprintf.o)
 .text          0x00000000        0x0 ../../pic32/compiler/pic32-tools/bin/../lib/gcc/pic32mx/4.5.2/../../../../pic32mx/lib\libc.a(lib_a-impure.o)
 .data          0x00000000        0x0 ../../pic32/compiler/pic32-tools/bin/../lib/gcc/pic32mx/4.5.2/../../../../pic32mx/lib\libc.a(lib_a-impure.o)
 .bss           0x00000000        0x0 ../../pic32/compiler/pic32-tools/bin/../lib/gcc/pic32mx/4.5.2/../../../../pic32mx/lib\libc.a(lib_a-impure.o)
 .reginfo       0x00000000       0x18 ../../pic32/compiler/pic32-tools/bin/../lib/gcc/pic32mx/4.5.2/../../../../pic32mx/lib\libc.a(lib_a-impure.o)
 .rodata._global_impure_ptr._global_impure_ptr
                0x00000000        0x4 ../../pic32/compiler/pic32-tools/bin/../lib/gcc/pic32mx/4.5.2/../../../../pic32mx/lib\libc.a(lib_a-impure.o)
 .text          0x00000000        0x0 ../../pic32/compiler/pic32-tools/bin/../lib/gcc/pic32mx/4.5.2/../../../../pic32mx/lib\libc.a(lib_a-printf.o)
 .data          0x00000000        0x0 ../../pic32/compiler/pic32-tools/bin/../lib/gcc/pic32mx/4.5.2/../../../../pic32mx/lib\libc.a(lib_a-printf.o)
 .bss           0x00000000        0x0 ../../pic32/compiler/pic32-tools/bin/../lib/gcc/pic32mx/4.5.2/../../../../pic32mx/lib\libc.a(lib_a-printf.o)
 .reginfo       0x00000000       0x18 ../../pic32/compiler/pic32-tools/bin/../lib/gcc/pic32mx/4.5.2/../../../../pic32mx/lib\libc.a(lib_a-printf.o)
 .text._printf_r
                0x00000000       0x30 ../../pic32/compiler/pic32-tools/bin/../lib/gcc/pic32mx/4.5.2/../../../../pic32mx/lib\libc.a(lib_a-printf.o)
 .text          0x00000000        0x0 ../../pic32/compiler/pic32-tools/bin/../lib/gcc/pic32mx/4.5.2/../../../../pic32mx/lib\libc.a(lib_a-vfiprintf.o)
 .data          0x00000000        0x0 ../../pic32/compiler/pic32-tools/bin/../lib/gcc/pic32mx/4.5.2/../../../../pic32mx/lib\libc.a(lib_a-vfiprintf.o)
 .bss           0x00000000        0x0 ../../pic32/compiler/pic32-tools/bin/../lib/gcc/pic32mx/4.5.2/../../../../pic32mx/lib\libc.a(lib_a-vfiprintf.o)
 .reginfo       0x00000000       0x18 ../../pic32/compiler/pic32-tools/bin/../lib/gcc/pic32mx/4.5.2/../../../../pic32mx/lib\libc.a(lib_a-vfiprintf.o)
 .text.vfiprintf
                0x00000000       0x1c ../../pic32/compiler/pic32-tools/bin/../lib/gcc/pic32mx/4.5.2/../../../../pic32mx/lib\libc.a(lib_a-vfiprintf.o)
 .text          0x00000000        0x0 ../../pic32/compiler/pic32-tools/bin/../lib/gcc/pic32mx/4.5.2/../../../../pic32mx/lib\libc.a(lib_a-vfprintf.o)
 .data          0x00000000        0x0 ../../pic32/compiler/pic32-tools/bin/../lib/gcc/pic32mx/4.5.2/../../../../pic32mx/lib\libc.a(lib_a-vfprintf.o)
 .bss           0x00000000        0x0 ../../pic32/compiler/pic32-tools/bin/../lib/gcc/pic32mx/4.5.2/../../../../pic32mx/lib\libc.a(lib_a-vfprintf.o)
 .reginfo       0x00000000       0x18 ../../pic32/compiler/pic32-tools/bin/../lib/gcc/pic32mx/4.5.2/../../../../pic32mx/lib\libc.a(lib_a-vfprintf.o)
 .text.vfprintf
                0x00000000       0x1c ../../pic32/compiler/pic32-tools/bin/../lib/gcc/pic32mx/4.5.2/../../../../pic32mx/lib\libc.a(lib_a-vfprintf.o)
 .text          0x00000000        0x0 ../../pic32/compiler/pic32-tools/bin/../lib/gcc/pic32mx/4.5.2/../../../../pic32mx/lib\libc.a(lib_a-wsetup.o)
 .data          0x00000000        0x0 ../../pic32/compiler/pic32-tools/bin/../lib/gcc/pic32mx/4.5.2/../../../../pic32mx/lib\libc.a(lib_a-wsetup.o)
 .bss           0x00000000        0x0 ../../pic32/compiler/pic32-tools/bin/../lib/gcc/pic32mx/4.5.2/../../../../pic32mx/lib\libc.a(lib_a-wsetup.o)
 .reginfo       0x00000000       0x18 ../../pic32/compiler/pic32-tools/bin/../lib/gcc/pic32mx/4.5.2/../../../../pic32mx/lib\libc.a(lib_a-wsetup.o)
 .text          0x00000000        0x0 ../../pic32/compiler/pic32-tools/bin/../lib/gcc/pic32mx/4.5.2/../../../../pic32mx/lib\libc.a(lib_a-abort.o)
 .data          0x00000000        0x0 ../../pic32/compiler/pic32-tools/bin/../lib/gcc/pic32mx/4.5.2/../../../../pic32mx/lib\libc.a(lib_a-abort.o)
 .bss           0x00000000        0x0 ../../pic32/compiler/pic32-tools/bin/../lib/gcc/pic32mx/4.5.2/../../../../pic32mx/lib\libc.a(lib_a-abort.o)
 .reginfo       0x00000000       0x18 ../../pic32/compiler/pic32-tools/bin/../lib/gcc/pic32mx/4.5.2/../../../../pic32mx/lib\libc.a(lib_a-abort.o)
 .text          0x00000000        0x0 ../../pic32/compiler/pic32-tools/bin/../lib/gcc/pic32mx/4.5.2/../../../../pic32mx/lib\libc.a(lib_a-dtoa.o)
 .data          0x00000000        0x0 ../../pic32/compiler/pic32-tools/bin/../lib/gcc/pic32mx/4.5.2/../../../../pic32mx/lib\libc.a(lib_a-dtoa.o)
 .bss           0x00000000        0x0 ../../pic32/compiler/pic32-tools/bin/../lib/gcc/pic32mx/4.5.2/../../../../pic32mx/lib\libc.a(lib_a-dtoa.o)
 .reginfo       0x00000000       0x18 ../../pic32/compiler/pic32-tools/bin/../lib/gcc/pic32mx/4.5.2/../../../../pic32mx/lib\libc.a(lib_a-dtoa.o)
 .text          0x00000000        0x0 ../../pic32/compiler/pic32-tools/bin/../lib/gcc/pic32mx/4.5.2/../../../../pic32mx/lib\libc.a(lib_a-fflush.o)
 .data          0x00000000        0x0 ../../pic32/compiler/pic32-tools/bin/../lib/gcc/pic32mx/4.5.2/../../../../pic32mx/lib\libc.a(lib_a-fflush.o)
 .bss           0x00000000        0x0 ../../pic32/compiler/pic32-tools/bin/../lib/gcc/pic32mx/4.5.2/../../../../pic32mx/lib\libc.a(lib_a-fflush.o)
 .reginfo       0x00000000       0x18 ../../pic32/compiler/pic32-tools/bin/../lib/gcc/pic32mx/4.5.2/../../../../pic32mx/lib\libc.a(lib_a-fflush.o)
 .text.fflush   0x00000000       0x24 ../../pic32/compiler/pic32-tools/bin/../lib/gcc/pic32mx/4.5.2/../../../../pic32mx/lib\libc.a(lib_a-fflush.o)
 .text          0x00000000        0x0 ../../pic32/compiler/pic32-tools/bin/../lib/gcc/pic32mx/4.5.2/../../../../pic32mx/lib\libc.a(lib_a-findfp.o)
 .data          0x00000000        0x0 ../../pic32/compiler/pic32-tools/bin/../lib/gcc/pic32mx/4.5.2/../../../../pic32mx/lib\libc.a(lib_a-findfp.o)
 .bss           0x00000000        0x0 ../../pic32/compiler/pic32-tools/bin/../lib/gcc/pic32mx/4.5.2/../../../../pic32mx/lib\libc.a(lib_a-findfp.o)
 .reginfo       0x00000000       0x18 ../../pic32/compiler/pic32-tools/bin/../lib/gcc/pic32mx/4.5.2/../../../../pic32mx/lib\libc.a(lib_a-findfp.o)
 .text.__sfmoreglue
                0x00000000       0x64 ../../pic32/compiler/pic32-tools/bin/../lib/gcc/pic32mx/4.5.2/../../../../pic32mx/lib\libc.a(lib_a-findfp.o)
 .text._cleanup
                0x00000000        0xc ../../pic32/compiler/pic32-tools/bin/../lib/gcc/pic32mx/4.5.2/../../../../pic32mx/lib\libc.a(lib_a-findfp.o)
 .text.__sfp    0x00000000       0xf4 ../../pic32/compiler/pic32-tools/bin/../lib/gcc/pic32mx/4.5.2/../../../../pic32mx/lib\libc.a(lib_a-findfp.o)
 .text          0x00000000        0x0 ../../pic32/compiler/pic32-tools/bin/../lib/gcc/pic32mx/4.5.2/../../../../pic32mx/lib\libc.a(lib_a-fputwc.o)
 .data          0x00000000        0x0 ../../pic32/compiler/pic32-tools/bin/../lib/gcc/pic32mx/4.5.2/../../../../pic32mx/lib\libc.a(lib_a-fputwc.o)
 .bss           0x00000000        0x0 ../../pic32/compiler/pic32-tools/bin/../lib/gcc/pic32mx/4.5.2/../../../../pic32mx/lib\libc.a(lib_a-fputwc.o)
 .reginfo       0x00000000       0x18 ../../pic32/compiler/pic32-tools/bin/../lib/gcc/pic32mx/4.5.2/../../../../pic32mx/lib\libc.a(lib_a-fputwc.o)
 .text.fputwc   0x00000000       0x48 ../../pic32/compiler/pic32-tools/bin/../lib/gcc/pic32mx/4.5.2/../../../../pic32mx/lib\libc.a(lib_a-fputwc.o)
 .text          0x00000000        0x0 ../../pic32/compiler/pic32-tools/bin/../lib/gcc/pic32mx/4.5.2/../../../../pic32mx/lib\libc.a(lib_a-freer.o)
 .data          0x00000000        0x0 ../../pic32/compiler/pic32-tools/bin/../lib/gcc/pic32mx/4.5.2/../../../../pic32mx/lib\libc.a(lib_a-freer.o)
 .bss           0x00000000        0x0 ../../pic32/compiler/pic32-tools/bin/../lib/gcc/pic32mx/4.5.2/../../../../pic32mx/lib\libc.a(lib_a-freer.o)
 .reginfo       0x00000000       0x18 ../../pic32/compiler/pic32-tools/bin/../lib/gcc/pic32mx/4.5.2/../../../../pic32mx/lib\libc.a(lib_a-freer.o)
 .text          0x00000000        0x0 ../../pic32/compiler/pic32-tools/bin/../lib/gcc/pic32mx/4.5.2/../../../../pic32mx/lib\libc.a(lib_a-fvwrite.o)
 .data          0x00000000        0x0 ../../pic32/compiler/pic32-tools/bin/../lib/gcc/pic32mx/4.5.2/../../../../pic32mx/lib\libc.a(lib_a-fvwrite.o)
 .bss           0x00000000        0x0 ../../pic32/compiler/pic32-tools/bin/../lib/gcc/pic32mx/4.5.2/../../../../pic32mx/lib\libc.a(lib_a-fvwrite.o)
 .reginfo       0x00000000       0x18 ../../pic32/compiler/pic32-tools/bin/../lib/gcc/pic32mx/4.5.2/../../../../pic32mx/lib\libc.a(lib_a-fvwrite.o)
 .text          0x00000000        0x0 ../../pic32/compiler/pic32-tools/bin/../lib/gcc/pic32mx/4.5.2/../../../../pic32mx/lib\libc.a(lib_a-fwalk.o)
 .data          0x00000000        0x0 ../../pic32/compiler/pic32-tools/bin/../lib/gcc/pic32mx/4.5.2/../../../../pic32mx/lib\libc.a(lib_a-fwalk.o)
 .bss           0x00000000        0x0 ../../pic32/compiler/pic32-tools/bin/../lib/gcc/pic32mx/4.5.2/../../../../pic32mx/lib\libc.a(lib_a-fwalk.o)
 .reginfo       0x00000000       0x18 ../../pic32/compiler/pic32-tools/bin/../lib/gcc/pic32mx/4.5.2/../../../../pic32mx/lib\libc.a(lib_a-fwalk.o)
 .text._fwalk_reent
                0x00000000       0xac ../../pic32/compiler/pic32-tools/bin/../lib/gcc/pic32mx/4.5.2/../../../../pic32mx/lib\libc.a(lib_a-fwalk.o)
 .text          0x00000000        0x0 ../../pic32/compiler/pic32-tools/bin/../lib/gcc/pic32mx/4.5.2/../../../../pic32mx/lib\libc.a(lib_a-locale.o)
 .data          0x00000000        0x0 ../../pic32/compiler/pic32-tools/bin/../lib/gcc/pic32mx/4.5.2/../../../../pic32mx/lib\libc.a(lib_a-locale.o)
 .bss           0x00000000        0x0 ../../pic32/compiler/pic32-tools/bin/../lib/gcc/pic32mx/4.5.2/../../../../pic32mx/lib\libc.a(lib_a-locale.o)
 .reginfo       0x00000000       0x18 ../../pic32/compiler/pic32-tools/bin/../lib/gcc/pic32mx/4.5.2/../../../../pic32mx/lib\libc.a(lib_a-locale.o)
 .text._setlocale_r
                0x00000000       0x78 ../../pic32/compiler/pic32-tools/bin/../lib/gcc/pic32mx/4.5.2/../../../../pic32mx/lib\libc.a(lib_a-locale.o)
 .text.__locale_msgcharset
                0x00000000        0xc ../../pic32/compiler/pic32-tools/bin/../lib/gcc/pic32mx/4.5.2/../../../../pic32mx/lib\libc.a(lib_a-locale.o)
 .text.__locale_cjk_lang
                0x00000000        0x8 ../../pic32/compiler/pic32-tools/bin/../lib/gcc/pic32mx/4.5.2/../../../../pic32mx/lib\libc.a(lib_a-locale.o)
 .text.setlocale
                0x00000000       0x14 ../../pic32/compiler/pic32-tools/bin/../lib/gcc/pic32mx/4.5.2/../../../../pic32mx/lib\libc.a(lib_a-locale.o)
 .text.localeconv
                0x00000000        0xc ../../pic32/compiler/pic32-tools/bin/../lib/gcc/pic32mx/4.5.2/../../../../pic32mx/lib\libc.a(lib_a-locale.o)
 .data.lc_message_charset.lc_message_charset
                0x00000000       0x20 ../../pic32/compiler/pic32-tools/bin/../lib/gcc/pic32mx/4.5.2/../../../../pic32mx/lib\libc.a(lib_a-locale.o)
 .text          0x00000000        0x0 ../../pic32/compiler/pic32-tools/bin/../lib/gcc/pic32mx/4.5.2/../../../../pic32mx/lib\libc.a(lib_a-makebuf.o)
 .data          0x00000000        0x0 ../../pic32/compiler/pic32-tools/bin/../lib/gcc/pic32mx/4.5.2/../../../../pic32mx/lib\libc.a(lib_a-makebuf.o)
 .bss           0x00000000        0x0 ../../pic32/compiler/pic32-tools/bin/../lib/gcc/pic32mx/4.5.2/../../../../pic32mx/lib\libc.a(lib_a-makebuf.o)
 .reginfo       0x00000000       0x18 ../../pic32/compiler/pic32-tools/bin/../lib/gcc/pic32mx/4.5.2/../../../../pic32mx/lib\libc.a(lib_a-makebuf.o)
 .text          0x00000000        0x0 ../../pic32/compiler/pic32-tools/bin/../lib/gcc/pic32mx/4.5.2/../../../../pic32mx/lib\libc.a(lib_a-mallocr.o)
 .data          0x00000000        0x0 ../../pic32/compiler/pic32-tools/bin/../lib/gcc/pic32mx/4.5.2/../../../../pic32mx/lib\libc.a(lib_a-mallocr.o)
 .bss           0x00000000        0x0 ../../pic32/compiler/pic32-tools/bin/../lib/gcc/pic32mx/4.5.2/../../../../pic32mx/lib\libc.a(lib_a-mallocr.o)
 .reginfo       0x00000000       0x18 ../../pic32/compiler/pic32-tools/bin/../lib/gcc/pic32mx/4.5.2/../../../../pic32mx/lib\libc.a(lib_a-mallocr.o)
 .text          0x00000000        0x0 ../../pic32/compiler/pic32-tools/bin/../lib/gcc/pic32mx/4.5.2/../../../../pic32mx/lib\libc.a(lib_a-memchr.o)
 .data          0x00000000        0x0 ../../pic32/compiler/pic32-tools/bin/../lib/gcc/pic32mx/4.5.2/../../../../pic32mx/lib\libc.a(lib_a-memchr.o)
 .bss           0x00000000        0x0 ../../pic32/compiler/pic32-tools/bin/../lib/gcc/pic32mx/4.5.2/../../../../pic32mx/lib\libc.a(lib_a-memchr.o)
 .reginfo       0x00000000       0x18 ../../pic32/compiler/pic32-tools/bin/../lib/gcc/pic32mx/4.5.2/../../../../pic32mx/lib\libc.a(lib_a-memchr.o)
 .text          0x00000000        0x0 ../../pic32/compiler/pic32-tools/bin/../lib/gcc/pic32mx/4.5.2/../../../../pic32mx/lib\libc.a(lib_a-memcpy.o)
 .data          0x00000000        0x0 ../../pic32/compiler/pic32-tools/bin/../lib/gcc/pic32mx/4.5.2/../../../../pic32mx/lib\libc.a(lib_a-memcpy.o)
 .bss           0x00000000        0x0 ../../pic32/compiler/pic32-tools/bin/../lib/gcc/pic32mx/4.5.2/../../../../pic32mx/lib\libc.a(lib_a-memcpy.o)
 .reginfo       0x00000000       0x18 ../../pic32/compiler/pic32-tools/bin/../lib/gcc/pic32mx/4.5.2/../../../../pic32mx/lib\libc.a(lib_a-memcpy.o)
 .text          0x00000000        0x0 ../../pic32/compiler/pic32-tools/bin/../lib/gcc/pic32mx/4.5.2/../../../../pic32mx/lib\libc.a(lib_a-memmove.o)
 .data          0x00000000        0x0 ../../pic32/compiler/pic32-tools/bin/../lib/gcc/pic32mx/4.5.2/../../../../pic32mx/lib\libc.a(lib_a-memmove.o)
 .bss           0x00000000        0x0 ../../pic32/compiler/pic32-tools/bin/../lib/gcc/pic32mx/4.5.2/../../../../pic32mx/lib\libc.a(lib_a-memmove.o)
 .reginfo       0x00000000       0x18 ../../pic32/compiler/pic32-tools/bin/../lib/gcc/pic32mx/4.5.2/../../../../pic32mx/lib\libc.a(lib_a-memmove.o)
 .text          0x00000000        0x0 ../../pic32/compiler/pic32-tools/bin/../lib/gcc/pic32mx/4.5.2/../../../../pic32mx/lib\libc.a(lib_a-memset.o)
 .data          0x00000000        0x0 ../../pic32/compiler/pic32-tools/bin/../lib/gcc/pic32mx/4.5.2/../../../../pic32mx/lib\libc.a(lib_a-memset.o)
 .bss           0x00000000        0x0 ../../pic32/compiler/pic32-tools/bin/../lib/gcc/pic32mx/4.5.2/../../../../pic32mx/lib\libc.a(lib_a-memset.o)
 .reginfo       0x00000000       0x18 ../../pic32/compiler/pic32-tools/bin/../lib/gcc/pic32mx/4.5.2/../../../../pic32mx/lib\libc.a(lib_a-memset.o)
 .text          0x00000000        0x0 ../../pic32/compiler/pic32-tools/bin/../lib/gcc/pic32mx/4.5.2/../../../../pic32mx/lib\libc.a(lib_a-mlock.o)
 .data          0x00000000        0x0 ../../pic32/compiler/pic32-tools/bin/../lib/gcc/pic32mx/4.5.2/../../../../pic32mx/lib\libc.a(lib_a-mlock.o)
 .bss           0x00000000        0x0 ../../pic32/compiler/pic32-tools/bin/../lib/gcc/pic32mx/4.5.2/../../../../pic32mx/lib\libc.a(lib_a-mlock.o)
 .reginfo       0x00000000       0x18 ../../pic32/compiler/pic32-tools/bin/../lib/gcc/pic32mx/4.5.2/../../../../pic32mx/lib\libc.a(lib_a-mlock.o)
 .text          0x00000000        0x0 ../../pic32/compiler/pic32-tools/bin/../lib/gcc/pic32mx/4.5.2/../../../../pic32mx/lib\libc.a(lib_a-mprec.o)
 .data          0x00000000        0x0 ../../pic32/compiler/pic32-tools/bin/../lib/gcc/pic32mx/4.5.2/../../../../pic32mx/lib\libc.a(lib_a-mprec.o)
 .bss           0x00000000        0x0 ../../pic32/compiler/pic32-tools/bin/../lib/gcc/pic32mx/4.5.2/../../../../pic32mx/lib\libc.a(lib_a-mprec.o)
 .reginfo       0x00000000       0x18 ../../pic32/compiler/pic32-tools/bin/../lib/gcc/pic32mx/4.5.2/../../../../pic32mx/lib\libc.a(lib_a-mprec.o)
 .text.__s2b    0x00000000      0x114 ../../pic32/compiler/pic32-tools/bin/../lib/gcc/pic32mx/4.5.2/../../../../pic32mx/lib\libc.a(lib_a-mprec.o)
 .text.__ulp    0x00000000       0x64 ../../pic32/compiler/pic32-tools/bin/../lib/gcc/pic32mx/4.5.2/../../../../pic32mx/lib\libc.a(lib_a-mprec.o)
 .text.__b2d    0x00000000      0x110 ../../pic32/compiler/pic32-tools/bin/../lib/gcc/pic32mx/4.5.2/../../../../pic32mx/lib\libc.a(lib_a-mprec.o)
 .text.__ratio  0x00000000       0xa0 ../../pic32/compiler/pic32-tools/bin/../lib/gcc/pic32mx/4.5.2/../../../../pic32mx/lib\libc.a(lib_a-mprec.o)
 .text._mprec_log10
                0x00000000       0x8c ../../pic32/compiler/pic32-tools/bin/../lib/gcc/pic32mx/4.5.2/../../../../pic32mx/lib\libc.a(lib_a-mprec.o)
 .text.__copybits
                0x00000000       0x68 ../../pic32/compiler/pic32-tools/bin/../lib/gcc/pic32mx/4.5.2/../../../../pic32mx/lib\libc.a(lib_a-mprec.o)
 .text.__any_on
                0x00000000       0x90 ../../pic32/compiler/pic32-tools/bin/../lib/gcc/pic32mx/4.5.2/../../../../pic32mx/lib\libc.a(lib_a-mprec.o)
 .rodata.__mprec_tinytens.__mprec_tinytens
                0x00000000       0x28 ../../pic32/compiler/pic32-tools/bin/../lib/gcc/pic32mx/4.5.2/../../../../pic32mx/lib\libc.a(lib_a-mprec.o)
 .rodata        0x00000000       0x10 ../../pic32/compiler/pic32-tools/bin/../lib/gcc/pic32mx/4.5.2/../../../../pic32mx/lib\libc.a(lib_a-mprec.o)
 .text          0x00000000        0x0 ../../pic32/compiler/pic32-tools/bin/../lib/gcc/pic32mx/4.5.2/../../../../pic32mx/lib\libc.a(lib_a-reallocr.o)
 .data          0x00000000        0x0 ../../pic32/compiler/pic32-tools/bin/../lib/gcc/pic32mx/4.5.2/../../../../pic32mx/lib\libc.a(lib_a-reallocr.o)
 .bss           0x00000000        0x0 ../../pic32/compiler/pic32-tools/bin/../lib/gcc/pic32mx/4.5.2/../../../../pic32mx/lib\libc.a(lib_a-reallocr.o)
 .reginfo       0x00000000       0x18 ../../pic32/compiler/pic32-tools/bin/../lib/gcc/pic32mx/4.5.2/../../../../pic32mx/lib\libc.a(lib_a-reallocr.o)
 .text          0x00000000        0x0 ../../pic32/compiler/pic32-tools/bin/../lib/gcc/pic32mx/4.5.2/../../../../pic32mx/lib\libc.a(lib_a-sbrkr.o)
 .data          0x00000000        0x0 ../../pic32/compiler/pic32-tools/bin/../lib/gcc/pic32mx/4.5.2/../../../../pic32mx/lib\libc.a(lib_a-sbrkr.o)
 .bss           0x00000000        0x0 ../../pic32/compiler/pic32-tools/bin/../lib/gcc/pic32mx/4.5.2/../../../../pic32mx/lib\libc.a(lib_a-sbrkr.o)
 .reginfo       0x00000000       0x18 ../../pic32/compiler/pic32-tools/bin/../lib/gcc/pic32mx/4.5.2/../../../../pic32mx/lib\libc.a(lib_a-sbrkr.o)
 .text          0x00000000        0x0 ../../pic32/compiler/pic32-tools/bin/../lib/gcc/pic32mx/4.5.2/../../../../pic32mx/lib\libc.a(lib_a-s_fpclassify.o)
 .data          0x00000000        0x0 ../../pic32/compiler/pic32-tools/bin/../lib/gcc/pic32mx/4.5.2/../../../../pic32mx/lib\libc.a(lib_a-s_fpclassify.o)
 .bss           0x00000000        0x0 ../../pic32/compiler/pic32-tools/bin/../lib/gcc/pic32mx/4.5.2/../../../../pic32mx/lib\libc.a(lib_a-s_fpclassify.o)
 .reginfo       0x00000000       0x18 ../../pic32/compiler/pic32-tools/bin/../lib/gcc/pic32mx/4.5.2/../../../../pic32mx/lib\libc.a(lib_a-s_fpclassify.o)
 .text          0x00000000        0x0 ../../pic32/compiler/pic32-tools/bin/../lib/gcc/pic32mx/4.5.2/../../../../pic32mx/lib\libc.a(lib_a-signal.o)
 .data          0x00000000        0x0 ../../pic32/compiler/pic32-tools/bin/../lib/gcc/pic32mx/4.5.2/../../../../pic32mx/lib\libc.a(lib_a-signal.o)
 .bss           0x00000000        0x0 ../../pic32/compiler/pic32-tools/bin/../lib/gcc/pic32mx/4.5.2/../../../../pic32mx/lib\libc.a(lib_a-signal.o)
 .reginfo       0x00000000       0x18 ../../pic32/compiler/pic32-tools/bin/../lib/gcc/pic32mx/4.5.2/../../../../pic32mx/lib\libc.a(lib_a-signal.o)
 .text._init_signal_r
                0x00000000       0x5c ../../pic32/compiler/pic32-tools/bin/../lib/gcc/pic32mx/4.5.2/../../../../pic32mx/lib\libc.a(lib_a-signal.o)
 .text._signal_r
                0x00000000       0x78 ../../pic32/compiler/pic32-tools/bin/../lib/gcc/pic32mx/4.5.2/../../../../pic32mx/lib\libc.a(lib_a-signal.o)
 .text.__sigtramp_r
                0x00000000       0x94 ../../pic32/compiler/pic32-tools/bin/../lib/gcc/pic32mx/4.5.2/../../../../pic32mx/lib\libc.a(lib_a-signal.o)
 .text.signal   0x00000000       0x14 ../../pic32/compiler/pic32-tools/bin/../lib/gcc/pic32mx/4.5.2/../../../../pic32mx/lib\libc.a(lib_a-signal.o)
 .text._init_signal
                0x00000000        0x8 ../../pic32/compiler/pic32-tools/bin/../lib/gcc/pic32mx/4.5.2/../../../../pic32mx/lib\libc.a(lib_a-signal.o)
 .text.__sigtramp
                0x00000000        0xc ../../pic32/compiler/pic32-tools/bin/../lib/gcc/pic32mx/4.5.2/../../../../pic32mx/lib\libc.a(lib_a-signal.o)
 .text          0x00000000        0x0 ../../pic32/compiler/pic32-tools/bin/../lib/gcc/pic32mx/4.5.2/../../../../pic32mx/lib\libc.a(lib_a-signalr.o)
 .data          0x00000000        0x0 ../../pic32/compiler/pic32-tools/bin/../lib/gcc/pic32mx/4.5.2/../../../../pic32mx/lib\libc.a(lib_a-signalr.o)
 .bss           0x00000000        0x0 ../../pic32/compiler/pic32-tools/bin/../lib/gcc/pic32mx/4.5.2/../../../../pic32mx/lib\libc.a(lib_a-signalr.o)
 .reginfo       0x00000000       0x18 ../../pic32/compiler/pic32-tools/bin/../lib/gcc/pic32mx/4.5.2/../../../../pic32mx/lib\libc.a(lib_a-signalr.o)
 .text          0x00000000        0x0 ../../pic32/compiler/pic32-tools/bin/../lib/gcc/pic32mx/4.5.2/../../../../pic32mx/lib\libc.a(lib_a-stdio.o)
 .data          0x00000000        0x0 ../../pic32/compiler/pic32-tools/bin/../lib/gcc/pic32mx/4.5.2/../../../../pic32mx/lib\libc.a(lib_a-stdio.o)
 .bss           0x00000000        0x0 ../../pic32/compiler/pic32-tools/bin/../lib/gcc/pic32mx/4.5.2/../../../../pic32mx/lib\libc.a(lib_a-stdio.o)
 .reginfo       0x00000000       0x18 ../../pic32/compiler/pic32-tools/bin/../lib/gcc/pic32mx/4.5.2/../../../../pic32mx/lib\libc.a(lib_a-stdio.o)
 .text.__seofread
                0x00000000        0x8 ../../pic32/compiler/pic32-tools/bin/../lib/gcc/pic32mx/4.5.2/../../../../pic32mx/lib\libc.a(lib_a-stdio.o)
 .text          0x00000000        0x0 ../../pic32/compiler/pic32-tools/bin/../lib/gcc/pic32mx/4.5.2/../../../../pic32mx/lib\libc.a(lib_a-strcmp.o)
 .data          0x00000000        0x0 ../../pic32/compiler/pic32-tools/bin/../lib/gcc/pic32mx/4.5.2/../../../../pic32mx/lib\libc.a(lib_a-strcmp.o)
 .bss           0x00000000        0x0 ../../pic32/compiler/pic32-tools/bin/../lib/gcc/pic32mx/4.5.2/../../../../pic32mx/lib\libc.a(lib_a-strcmp.o)
 .reginfo       0x00000000       0x18 ../../pic32/compiler/pic32-tools/bin/../lib/gcc/pic32mx/4.5.2/../../../../pic32mx/lib\libc.a(lib_a-strcmp.o)
 .text.strcmp   0x00000000       0x64 ../../pic32/compiler/pic32-tools/bin/../lib/gcc/pic32mx/4.5.2/../../../../pic32mx/lib\libc.a(lib_a-strcmp.o)
 .data          0x00000000        0x0 ../../pic32/compiler/pic32-tools/bin/../lib/gcc/pic32mx/4.5.2/../../../../pic32mx/lib\libc.a(lib_a-strlen.o)
 .bss           0x00000000        0x0 ../../pic32/compiler/pic32-tools/bin/../lib/gcc/pic32mx/4.5.2/../../../../pic32mx/lib\libc.a(lib_a-strlen.o)
 .reginfo       0x00000000       0x18 ../../pic32/compiler/pic32-tools/bin/../lib/gcc/pic32mx/4.5.2/../../../../pic32mx/lib\libc.a(lib_a-strlen.o)
 .text          0x00000000        0x0 ../../pic32/compiler/pic32-tools/bin/../lib/gcc/pic32mx/4.5.2/../../../../pic32mx/lib\libc.a(lib_a-wbuf.o)
 .data          0x00000000        0x0 ../../pic32/compiler/pic32-tools/bin/../lib/gcc/pic32mx/4.5.2/../../../../pic32mx/lib\libc.a(lib_a-wbuf.o)
 .bss           0x00000000        0x0 ../../pic32/compiler/pic32-tools/bin/../lib/gcc/pic32mx/4.5.2/../../../../pic32mx/lib\libc.a(lib_a-wbuf.o)
 .reginfo       0x00000000       0x18 ../../pic32/compiler/pic32-tools/bin/../lib/gcc/pic32mx/4.5.2/../../../../pic32mx/lib\libc.a(lib_a-wbuf.o)
 .text.__swbuf  0x00000000       0x14 ../../pic32/compiler/pic32-tools/bin/../lib/gcc/pic32mx/4.5.2/../../../../pic32mx/lib\libc.a(lib_a-wbuf.o)
 .text          0x00000000        0x0 ../../pic32/compiler/pic32-tools/bin/../lib/gcc/pic32mx/4.5.2/../../../../pic32mx/lib\libc.a(lib_a-wcrtomb.o)
 .data          0x00000000        0x0 ../../pic32/compiler/pic32-tools/bin/../lib/gcc/pic32mx/4.5.2/../../../../pic32mx/lib\libc.a(lib_a-wcrtomb.o)
 .bss           0x00000000        0x0 ../../pic32/compiler/pic32-tools/bin/../lib/gcc/pic32mx/4.5.2/../../../../pic32mx/lib\libc.a(lib_a-wcrtomb.o)
 .reginfo       0x00000000       0x18 ../../pic32/compiler/pic32-tools/bin/../lib/gcc/pic32mx/4.5.2/../../../../pic32mx/lib\libc.a(lib_a-wcrtomb.o)
 .text.wcrtomb  0x00000000       0x18 ../../pic32/compiler/pic32-tools/bin/../lib/gcc/pic32mx/4.5.2/../../../../pic32mx/lib\libc.a(lib_a-wcrtomb.o)
 .text          0x00000000        0x0 ../../pic32/compiler/pic32-tools/bin/../lib/gcc/pic32mx/4.5.2/../../../../pic32mx/lib\libc.a(lib_a-wctomb_r.o)
 .data          0x00000000        0x0 ../../pic32/compiler/pic32-tools/bin/../lib/gcc/pic32mx/4.5.2/../../../../pic32mx/lib\libc.a(lib_a-wctomb_r.o)
 .bss           0x00000000        0x0 ../../pic32/compiler/pic32-tools/bin/../lib/gcc/pic32mx/4.5.2/../../../../pic32mx/lib\libc.a(lib_a-wctomb_r.o)
 .reginfo       0x00000000       0x18 ../../pic32/compiler/pic32-tools/bin/../lib/gcc/pic32mx/4.5.2/../../../../pic32mx/lib\libc.a(lib_a-wctomb_r.o)
 .text._wctomb_r
                0x00000000       0x54 ../../pic32/compiler/pic32-tools/bin/../lib/gcc/pic32mx/4.5.2/../../../../pic32mx/lib\libc.a(lib_a-wctomb_r.o)
 .text          0x00000000        0x0 ../../pic32/compiler/pic32-tools/bin/../lib/gcc/pic32mx/4.5.2/../../../../pic32mx/lib\libc.a(lib_a-writer.o)
 .data          0x00000000        0x0 ../../pic32/compiler/pic32-tools/bin/../lib/gcc/pic32mx/4.5.2/../../../../pic32mx/lib\libc.a(lib_a-writer.o)
 .bss           0x00000000        0x0 ../../pic32/compiler/pic32-tools/bin/../lib/gcc/pic32mx/4.5.2/../../../../pic32mx/lib\libc.a(lib_a-writer.o)
 .reginfo       0x00000000       0x18 ../../pic32/compiler/pic32-tools/bin/../lib/gcc/pic32mx/4.5.2/../../../../pic32mx/lib\libc.a(lib_a-writer.o)
 .text          0x00000000        0x0 ../../pic32/compiler/pic32-tools/bin/../lib/gcc/pic32mx/4.5.2/../../../../pic32mx/lib\libc.a(lib_a-callocr.o)
 .data          0x00000000        0x0 ../../pic32/compiler/pic32-tools/bin/../lib/gcc/pic32mx/4.5.2/../../../../pic32mx/lib\libc.a(lib_a-callocr.o)
 .bss           0x00000000        0x0 ../../pic32/compiler/pic32-tools/bin/../lib/gcc/pic32mx/4.5.2/../../../../pic32mx/lib\libc.a(lib_a-callocr.o)
 .reginfo       0x00000000       0x18 ../../pic32/compiler/pic32-tools/bin/../lib/gcc/pic32mx/4.5.2/../../../../pic32mx/lib\libc.a(lib_a-callocr.o)
 .text          0x00000000        0x0 ../../pic32/compiler/pic32-tools/bin/../lib/gcc/pic32mx/4.5.2/../../../../pic32mx/lib\libc.a(lib_a-closer.o)
 .data          0x00000000        0x0 ../../pic32/compiler/pic32-tools/bin/../lib/gcc/pic32mx/4.5.2/../../../../pic32mx/lib\libc.a(lib_a-closer.o)
 .bss           0x00000000        0x0 ../../pic32/compiler/pic32-tools/bin/../lib/gcc/pic32mx/4.5.2/../../../../pic32mx/lib\libc.a(lib_a-closer.o)
 .reginfo       0x00000000       0x18 ../../pic32/compiler/pic32-tools/bin/../lib/gcc/pic32mx/4.5.2/../../../../pic32mx/lib\libc.a(lib_a-closer.o)
 .text          0x00000000        0x0 ../../pic32/compiler/pic32-tools/bin/../lib/gcc/pic32mx/4.5.2/../../../../pic32mx/lib\libc.a(lib_a-fclose.o)
 .data          0x00000000        0x0 ../../pic32/compiler/pic32-tools/bin/../lib/gcc/pic32mx/4.5.2/../../../../pic32mx/lib\libc.a(lib_a-fclose.o)
 .bss           0x00000000        0x0 ../../pic32/compiler/pic32-tools/bin/../lib/gcc/pic32mx/4.5.2/../../../../pic32mx/lib\libc.a(lib_a-fclose.o)
 .reginfo       0x00000000       0x18 ../../pic32/compiler/pic32-tools/bin/../lib/gcc/pic32mx/4.5.2/../../../../pic32mx/lib\libc.a(lib_a-fclose.o)
 .text          0x00000000        0x0 ../../pic32/compiler/pic32-tools/bin/../lib/gcc/pic32mx/4.5.2/../../../../pic32mx/lib\libc.a(lib_a-fstatr.o)
 .data          0x00000000        0x0 ../../pic32/compiler/pic32-tools/bin/../lib/gcc/pic32mx/4.5.2/../../../../pic32mx/lib\libc.a(lib_a-fstatr.o)
 .bss           0x00000000        0x0 ../../pic32/compiler/pic32-tools/bin/../lib/gcc/pic32mx/4.5.2/../../../../pic32mx/lib\libc.a(lib_a-fstatr.o)
 .reginfo       0x00000000       0x18 ../../pic32/compiler/pic32-tools/bin/../lib/gcc/pic32mx/4.5.2/../../../../pic32mx/lib\libc.a(lib_a-fstatr.o)
 .text          0x00000000        0x0 ../../pic32/compiler/pic32-tools/bin/../lib/gcc/pic32mx/4.5.2/../../../../pic32mx/lib\libc.a(lib_a-isattyr.o)
 .data          0x00000000        0x0 ../../pic32/compiler/pic32-tools/bin/../lib/gcc/pic32mx/4.5.2/../../../../pic32mx/lib\libc.a(lib_a-isattyr.o)
 .bss           0x00000000        0x0 ../../pic32/compiler/pic32-tools/bin/../lib/gcc/pic32mx/4.5.2/../../../../pic32mx/lib\libc.a(lib_a-isattyr.o)
 .reginfo       0x00000000       0x18 ../../pic32/compiler/pic32-tools/bin/../lib/gcc/pic32mx/4.5.2/../../../../pic32mx/lib\libc.a(lib_a-isattyr.o)
 .text          0x00000000        0x0 ../../pic32/compiler/pic32-tools/bin/../lib/gcc/pic32mx/4.5.2/../../../../pic32mx/lib\libc.a(lib_a-lseekr.o)
 .data          0x00000000        0x0 ../../pic32/compiler/pic32-tools/bin/../lib/gcc/pic32mx/4.5.2/../../../../pic32mx/lib\libc.a(lib_a-lseekr.o)
 .bss           0x00000000        0x0 ../../pic32/compiler/pic32-tools/bin/../lib/gcc/pic32mx/4.5.2/../../../../pic32mx/lib\libc.a(lib_a-lseekr.o)
 .reginfo       0x00000000       0x18 ../../pic32/compiler/pic32-tools/bin/../lib/gcc/pic32mx/4.5.2/../../../../pic32mx/lib\libc.a(lib_a-lseekr.o)
 .text          0x00000000        0x0 ../../pic32/compiler/pic32-tools/bin/../lib/gcc/pic32mx/4.5.2/../../../../pic32mx/lib\libc.a(lib_a-readr.o)
 .data          0x00000000        0x0 ../../pic32/compiler/pic32-tools/bin/../lib/gcc/pic32mx/4.5.2/../../../../pic32mx/lib\libc.a(lib_a-readr.o)
 .bss           0x00000000        0x0 ../../pic32/compiler/pic32-tools/bin/../lib/gcc/pic32mx/4.5.2/../../../../pic32mx/lib\libc.a(lib_a-readr.o)
 .reginfo       0x00000000       0x18 ../../pic32/compiler/pic32-tools/bin/../lib/gcc/pic32mx/4.5.2/../../../../pic32mx/lib\libc.a(lib_a-readr.o)
 .text          0x00000000        0x0 ../../pic32/compiler/pic32-tools/bin/../lib/gcc/pic32mx/4.5.2/../../../../pic32mx/lib\libc.a(lib_a-reent.o)
 .data          0x00000000        0x0 ../../pic32/compiler/pic32-tools/bin/../lib/gcc/pic32mx/4.5.2/../../../../pic32mx/lib\libc.a(lib_a-reent.o)
 .bss           0x00000000        0x0 ../../pic32/compiler/pic32-tools/bin/../lib/gcc/pic32mx/4.5.2/../../../../pic32mx/lib\libc.a(lib_a-reent.o)
 .reginfo       0x00000000       0x18 ../../pic32/compiler/pic32-tools/bin/../lib/gcc/pic32mx/4.5.2/../../../../pic32mx/lib\libc.a(lib_a-reent.o)
 .text.cleanup_glue
                0x00000000       0x44 ../../pic32/compiler/pic32-tools/bin/../lib/gcc/pic32mx/4.5.2/../../../../pic32mx/lib\libc.a(lib_a-reent.o)
 .text._reclaim_reent
                0x00000000      0x12c ../../pic32/compiler/pic32-tools/bin/../lib/gcc/pic32mx/4.5.2/../../../../pic32mx/lib\libc.a(lib_a-reent.o)
 .text._wrapup_reent
                0x00000000       0x9c ../../pic32/compiler/pic32-tools/bin/../lib/gcc/pic32mx/4.5.2/../../../../pic32mx/lib\libc.a(lib_a-reent.o)
 .text          0x00000000        0x0 ../../pic32/compiler/pic32-tools/bin/../lib/gcc/pic32mx/4.5.2/../../../../pic32mx/lib\libpic32.a(sbrk.o)
 .data          0x00000000        0x0 ../../pic32/compiler/pic32-tools/bin/../lib/gcc/pic32mx/4.5.2/../../../../pic32mx/lib\libpic32.a(sbrk.o)
 .bss           0x00000000        0x0 ../../pic32/compiler/pic32-tools/bin/../lib/gcc/pic32mx/4.5.2/../../../../pic32mx/lib\libpic32.a(sbrk.o)
 .reginfo       0x00000000       0x18 ../../pic32/compiler/pic32-tools/bin/../lib/gcc/pic32mx/4.5.2/../../../../pic32mx/lib\libpic32.a(sbrk.o)
 .text.getpagesize
                0x00000000        0x8 ../../pic32/compiler/pic32-tools/bin/../lib/gcc/pic32mx/4.5.2/../../../../pic32mx/lib\libpic32.a(sbrk.o)
 .text          0x00000000        0x0 ../../pic32/compiler/pic32-tools/bin/../lib/gcc/pic32mx/4.5.2/../../../../pic32mx/lib\libpic32.a(default-bootstrap-exception-handler.o)
 .data          0x00000000        0x0 ../../pic32/compiler/pic32-tools/bin/../lib/gcc/pic32mx/4.5.2/../../../../pic32mx/lib\libpic32.a(default-bootstrap-exception-handler.o)
 .bss           0x00000000        0x0 ../../pic32/compiler/pic32-tools/bin/../lib/gcc/pic32mx/4.5.2/../../../../pic32mx/lib\libpic32.a(default-bootstrap-exception-handler.o)
 .reginfo       0x00000000       0x18 ../../pic32/compiler/pic32-tools/bin/../lib/gcc/pic32mx/4.5.2/../../../../pic32mx/lib\libpic32.a(default-bootstrap-exception-handler.o)
 .text          0x00000000        0x0 ../../pic32/compiler/pic32-tools/bin/../lib/gcc/pic32mx/4.5.2/../../../../pic32mx/lib\libpic32.a(default-on-reset.o)
 .data          0x00000000        0x0 ../../pic32/compiler/pic32-tools/bin/../lib/gcc/pic32mx/4.5.2/../../../../pic32mx/lib\libpic32.a(default-on-reset.o)
 .bss           0x00000000        0x0 ../../pic32/compiler/pic32-tools/bin/../lib/gcc/pic32mx/4.5.2/../../../../pic32mx/lib\libpic32.a(default-on-reset.o)
 .reginfo       0x00000000       0x18 ../../pic32/compiler/pic32-tools/bin/../lib/gcc/pic32mx/4.5.2/../../../../pic32mx/lib\libpic32.a(default-on-reset.o)
 .text          0x00000000        0x0 ../../pic32/compiler/pic32-tools/bin/../lib/gcc/pic32mx/4.5.2/../../../../pic32mx/lib\libpic32.a(default-on-bootstrap.o)
 .data          0x00000000        0x0 ../../pic32/compiler/pic32-tools/bin/../lib/gcc/pic32mx/4.5.2/../../../../pic32mx/lib\libpic32.a(default-on-bootstrap.o)
 .bss           0x00000000        0x0 ../../pic32/compiler/pic32-tools/bin/../lib/gcc/pic32mx/4.5.2/../../../../pic32mx/lib\libpic32.a(default-on-bootstrap.o)
 .reginfo       0x00000000       0x18 ../../pic32/compiler/pic32-tools/bin/../lib/gcc/pic32mx/4.5.2/../../../../pic32mx/lib\libpic32.a(default-on-bootstrap.o)
 .data          0x00000000        0x0 ../../pic32/compiler/pic32-tools/bin/../lib/gcc/pic32mx/4.5.2/../../../../pic32mx/lib\libpic32.a(default-nmi-handler.o)
 .bss           0x00000000        0x0 ../../pic32/compiler/pic32-tools/bin/../lib/gcc/pic32mx/4.5.2/../../../../pic32mx/lib\libpic32.a(default-nmi-handler.o)
 .reginfo       0x00000000       0x18 ../../pic32/compiler/pic32-tools/bin/../lib/gcc/pic32mx/4.5.2/../../../../pic32mx/lib\libpic32.a(default-nmi-handler.o)
 .text          0x00000000        0x0 ../../pic32/compiler/pic32-tools/bin/../lib/gcc/pic32mx/4.5.2/../../../../pic32mx/lib\libpic32.a(_exit.o)
 .data          0x00000000        0x0 ../../pic32/compiler/pic32-tools/bin/../lib/gcc/pic32mx/4.5.2/../../../../pic32mx/lib\libpic32.a(_exit.o)
 .bss           0x00000000        0x0 ../../pic32/compiler/pic32-tools/bin/../lib/gcc/pic32mx/4.5.2/../../../../pic32mx/lib\libpic32.a(_exit.o)
 .reginfo       0x00000000       0x18 ../../pic32/compiler/pic32-tools/bin/../lib/gcc/pic32mx/4.5.2/../../../../pic32mx/lib\libpic32.a(_exit.o)
 .text          0x00000000        0x0 ../../pic32/compiler/pic32-tools/bin/../lib/gcc/pic32mx/4.5.2/../../../../pic32mx/lib\libpic32.a(isatty.o)
 .data          0x00000000        0x0 ../../pic32/compiler/pic32-tools/bin/../lib/gcc/pic32mx/4.5.2/../../../../pic32mx/lib\libpic32.a(isatty.o)
 .bss           0x00000000        0x0 ../../pic32/compiler/pic32-tools/bin/../lib/gcc/pic32mx/4.5.2/../../../../pic32mx/lib\libpic32.a(isatty.o)
 .reginfo       0x00000000       0x18 ../../pic32/compiler/pic32-tools/bin/../lib/gcc/pic32mx/4.5.2/../../../../pic32mx/lib\libpic32.a(isatty.o)
 .text          0x00000000        0x0 ../../pic32/compiler/pic32-tools/bin/../lib/gcc/pic32mx/4.5.2/../../../../pic32mx/lib\libpic32.a(read.o)
 .data          0x00000000        0x0 ../../pic32/compiler/pic32-tools/bin/../lib/gcc/pic32mx/4.5.2/../../../../pic32mx/lib\libpic32.a(read.o)
 .bss           0x00000000        0x0 ../../pic32/compiler/pic32-tools/bin/../lib/gcc/pic32mx/4.5.2/../../../../pic32mx/lib\libpic32.a(read.o)
 .reginfo       0x00000000       0x18 ../../pic32/compiler/pic32-tools/bin/../lib/gcc/pic32mx/4.5.2/../../../../pic32mx/lib\libpic32.a(read.o)
 .text          0x00000000        0x0 ../../pic32/compiler/pic32-tools/bin/../lib/gcc/pic32mx/4.5.2/../../../../pic32mx/lib\libpic32.a(write.o)
 .data          0x00000000        0x0 ../../pic32/compiler/pic32-tools/bin/../lib/gcc/pic32mx/4.5.2/../../../../pic32mx/lib\libpic32.a(write.o)
 .bss           0x00000000        0x0 ../../pic32/compiler/pic32-tools/bin/../lib/gcc/pic32mx/4.5.2/../../../../pic32mx/lib\libpic32.a(write.o)
 .reginfo       0x00000000       0x18 ../../pic32/compiler/pic32-tools/bin/../lib/gcc/pic32mx/4.5.2/../../../../pic32mx/lib\libpic32.a(write.o)
 .text          0x00000000        0x0 ../../pic32/compiler/pic32-tools/bin/../lib/gcc/pic32mx/4.5.2/../../../../pic32mx/lib\libpic32.a(lseek.o)
 .data          0x00000000        0x0 ../../pic32/compiler/pic32-tools/bin/../lib/gcc/pic32mx/4.5.2/../../../../pic32mx/lib\libpic32.a(lseek.o)
 .bss           0x00000000        0x0 ../../pic32/compiler/pic32-tools/bin/../lib/gcc/pic32mx/4.5.2/../../../../pic32mx/lib\libpic32.a(lseek.o)
 .reginfo       0x00000000       0x18 ../../pic32/compiler/pic32-tools/bin/../lib/gcc/pic32mx/4.5.2/../../../../pic32mx/lib\libpic32.a(lseek.o)
 .text          0x00000000        0x0 ../../pic32/compiler/pic32-tools/bin/../lib/gcc/pic32mx/4.5.2/../../../../pic32mx/lib\libpic32.a(close.o)
 .data          0x00000000        0x0 ../../pic32/compiler/pic32-tools/bin/../lib/gcc/pic32mx/4.5.2/../../../../pic32mx/lib\libpic32.a(close.o)
 .bss           0x00000000        0x0 ../../pic32/compiler/pic32-tools/bin/../lib/gcc/pic32mx/4.5.2/../../../../pic32mx/lib\libpic32.a(close.o)
 .reginfo       0x00000000       0x18 ../../pic32/compiler/pic32-tools/bin/../lib/gcc/pic32mx/4.5.2/../../../../pic32mx/lib\libpic32.a(close.o)
 .text          0x00000000        0x0 ../../pic32/compiler/pic32-tools/bin/../lib/gcc/pic32mx/4.5.2/../../../../pic32mx/lib\libpic32.a(fstat.o)
 .data          0x00000000        0x0 ../../pic32/compiler/pic32-tools/bin/../lib/gcc/pic32mx/4.5.2/../../../../pic32mx/lib\libpic32.a(fstat.o)
 .bss           0x00000000        0x0 ../../pic32/compiler/pic32-tools/bin/../lib/gcc/pic32mx/4.5.2/../../../../pic32mx/lib\libpic32.a(fstat.o)
 .reginfo       0x00000000       0x18 ../../pic32/compiler/pic32-tools/bin/../lib/gcc/pic32mx/4.5.2/../../../../pic32mx/lib\libpic32.a(fstat.o)
 .text          0x00000000        0x0 ../../pic32/compiler/pic32-tools/bin/../lib/gcc/pic32mx/4.5.2/../../../../pic32mx/lib\libpic32.a(kill.o)
 .data          0x00000000        0x0 ../../pic32/compiler/pic32-tools/bin/../lib/gcc/pic32mx/4.5.2/../../../../pic32mx/lib\libpic32.a(kill.o)
 .bss           0x00000000        0x0 ../../pic32/compiler/pic32-tools/bin/../lib/gcc/pic32mx/4.5.2/../../../../pic32mx/lib\libpic32.a(kill.o)
 .reginfo       0x00000000       0x18 ../../pic32/compiler/pic32-tools/bin/../lib/gcc/pic32mx/4.5.2/../../../../pic32mx/lib\libpic32.a(kill.o)
 .text          0x00000000        0x0 ../../pic32/compiler/pic32-tools/bin/../lib/gcc/pic32mx/4.5.2/../../../../pic32mx/lib\libpic32.a(getpid.o)
 .data          0x00000000        0x0 ../../pic32/compiler/pic32-tools/bin/../lib/gcc/pic32mx/4.5.2/../../../../pic32mx/lib\libpic32.a(getpid.o)
 .bss           0x00000000        0x0 ../../pic32/compiler/pic32-tools/bin/../lib/gcc/pic32mx/4.5.2/../../../../pic32mx/lib\libpic32.a(getpid.o)
 .reginfo       0x00000000       0x18 ../../pic32/compiler/pic32-tools/bin/../lib/gcc/pic32mx/4.5.2/../../../../pic32mx/lib\libpic32.a(getpid.o)
 .text          0x00000000        0x0 ../../pic32/compiler/pic32-tools/bin/../lib/gcc/pic32mx/4.5.2/../../../../pic32mx/lib\libpic32.a(xc32_uart.o)
 .data          0x00000000        0x0 ../../pic32/compiler/pic32-tools/bin/../lib/gcc/pic32mx/4.5.2/../../../../pic32mx/lib\libpic32.a(xc32_uart.o)
 .bss           0x00000000        0x0 ../../pic32/compiler/pic32-tools/bin/../lib/gcc/pic32mx/4.5.2/../../../../pic32mx/lib\libpic32.a(xc32_uart.o)
 .reginfo       0x00000000       0x18 ../../pic32/compiler/pic32-tools/bin/../lib/gcc/pic32mx/4.5.2/../../../../pic32mx/lib\libpic32.a(xc32_uart.o)
 .data          0x00000000        0x0 ../../pic32/compiler/pic32-tools/bin/../lib/gcc/pic32mx/4.5.2/../../../../pic32mx/lib\libpic32.a(pic32_software_reset.o)
 .bss           0x00000000        0x0 ../../pic32/compiler/pic32-tools/bin/../lib/gcc/pic32mx/4.5.2/../../../../pic32mx/lib\libpic32.a(pic32_software_reset.o)
 .reginfo       0x00000000       0x18 ../../pic32/compiler/pic32-tools/bin/../lib/gcc/pic32mx/4.5.2/../../../../pic32mx/lib\libpic32.a(pic32_software_reset.o)
 .text          0x00000000        0x0 ../../pic32/compiler/pic32-tools/bin/../lib/gcc/pic32mx/4.5.2/../../../../pic32mx/lib\libpic32.a(vector0.o)
 .data          0x00000000        0x0 ../../pic32/compiler/pic32-tools/bin/../lib/gcc/pic32mx/4.5.2/../../../../pic32mx/lib\libpic32.a(vector0.o)
 .bss           0x00000000        0x0 ../../pic32/compiler/pic32-tools/bin/../lib/gcc/pic32mx/4.5.2/../../../../pic32mx/lib\libpic32.a(vector0.o)
 .reginfo       0x00000000       0x18 ../../pic32/compiler/pic32-tools/bin/../lib/gcc/pic32mx/4.5.2/../../../../pic32mx/lib\libpic32.a(vector0.o)
 .text          0x00000000        0x0 ../../pic32/compiler/pic32-tools/bin/../lib/gcc/pic32mx/4.5.2/../../../../pic32mx/lib\libpic32.a(vector1.o)
 .data          0x00000000        0x0 ../../pic32/compiler/pic32-tools/bin/../lib/gcc/pic32mx/4.5.2/../../../../pic32mx/lib\libpic32.a(vector1.o)
 .bss           0x00000000        0x0 ../../pic32/compiler/pic32-tools/bin/../lib/gcc/pic32mx/4.5.2/../../../../pic32mx/lib\libpic32.a(vector1.o)
 .reginfo       0x00000000       0x18 ../../pic32/compiler/pic32-tools/bin/../lib/gcc/pic32mx/4.5.2/../../../../pic32mx/lib\libpic32.a(vector1.o)
 .text          0x00000000        0x0 ../../pic32/compiler/pic32-tools/bin/../lib/gcc/pic32mx/4.5.2/../../../../pic32mx/lib\libpic32.a(vector2.o)
 .data          0x00000000        0x0 ../../pic32/compiler/pic32-tools/bin/../lib/gcc/pic32mx/4.5.2/../../../../pic32mx/lib\libpic32.a(vector2.o)
 .bss           0x00000000        0x0 ../../pic32/compiler/pic32-tools/bin/../lib/gcc/pic32mx/4.5.2/../../../../pic32mx/lib\libpic32.a(vector2.o)
 .reginfo       0x00000000       0x18 ../../pic32/compiler/pic32-tools/bin/../lib/gcc/pic32mx/4.5.2/../../../../pic32mx/lib\libpic32.a(vector2.o)
 .text          0x00000000        0x0 ../../pic32/compiler/pic32-tools/bin/../lib/gcc/pic32mx/4.5.2/../../../../pic32mx/lib\libpic32.a(vector3.o)
 .data          0x00000000        0x0 ../../pic32/compiler/pic32-tools/bin/../lib/gcc/pic32mx/4.5.2/../../../../pic32mx/lib\libpic32.a(vector3.o)
 .bss           0x00000000        0x0 ../../pic32/compiler/pic32-tools/bin/../lib/gcc/pic32mx/4.5.2/../../../../pic32mx/lib\libpic32.a(vector3.o)
 .reginfo       0x00000000       0x18 ../../pic32/compiler/pic32-tools/bin/../lib/gcc/pic32mx/4.5.2/../../../../pic32mx/lib\libpic32.a(vector3.o)
 .text          0x00000000        0x0 ../../pic32/compiler/pic32-tools/bin/../lib/gcc/pic32mx/4.5.2/../../../../pic32mx/lib\libpic32.a(vector4.o)
 .data          0x00000000        0x0 ../../pic32/compiler/pic32-tools/bin/../lib/gcc/pic32mx/4.5.2/../../../../pic32mx/lib\libpic32.a(vector4.o)
 .bss           0x00000000        0x0 ../../pic32/compiler/pic32-tools/bin/../lib/gcc/pic32mx/4.5.2/../../../../pic32mx/lib\libpic32.a(vector4.o)
 .reginfo       0x00000000       0x18 ../../pic32/compiler/pic32-tools/bin/../lib/gcc/pic32mx/4.5.2/../../../../pic32mx/lib\libpic32.a(vector4.o)
 .text          0x00000000        0x0 ../../pic32/compiler/pic32-tools/bin/../lib/gcc/pic32mx/4.5.2/../../../../pic32mx/lib\libpic32.a(vector5.o)
 .data          0x00000000        0x0 ../../pic32/compiler/pic32-tools/bin/../lib/gcc/pic32mx/4.5.2/../../../../pic32mx/lib\libpic32.a(vector5.o)
 .bss           0x00000000        0x0 ../../pic32/compiler/pic32-tools/bin/../lib/gcc/pic32mx/4.5.2/../../../../pic32mx/lib\libpic32.a(vector5.o)
 .reginfo       0x00000000       0x18 ../../pic32/compiler/pic32-tools/bin/../lib/gcc/pic32mx/4.5.2/../../../../pic32mx/lib\libpic32.a(vector5.o)
 .text          0x00000000        0x0 ../../pic32/compiler/pic32-tools/bin/../lib/gcc/pic32mx/4.5.2/../../../../pic32mx/lib\libpic32.a(vector6.o)
 .data          0x00000000        0x0 ../../pic32/compiler/pic32-tools/bin/../lib/gcc/pic32mx/4.5.2/../../../../pic32mx/lib\libpic32.a(vector6.o)
 .bss           0x00000000        0x0 ../../pic32/compiler/pic32-tools/bin/../lib/gcc/pic32mx/4.5.2/../../../../pic32mx/lib\libpic32.a(vector6.o)
 .reginfo       0x00000000       0x18 ../../pic32/compiler/pic32-tools/bin/../lib/gcc/pic32mx/4.5.2/../../../../pic32mx/lib\libpic32.a(vector6.o)
 .text          0x00000000        0x0 ../../pic32/compiler/pic32-tools/bin/../lib/gcc/pic32mx/4.5.2/../../../../pic32mx/lib\libpic32.a(vector7.o)
 .data          0x00000000        0x0 ../../pic32/compiler/pic32-tools/bin/../lib/gcc/pic32mx/4.5.2/../../../../pic32mx/lib\libpic32.a(vector7.o)
 .bss           0x00000000        0x0 ../../pic32/compiler/pic32-tools/bin/../lib/gcc/pic32mx/4.5.2/../../../../pic32mx/lib\libpic32.a(vector7.o)
 .reginfo       0x00000000       0x18 ../../pic32/compiler/pic32-tools/bin/../lib/gcc/pic32mx/4.5.2/../../../../pic32mx/lib\libpic32.a(vector7.o)
 .text          0x00000000        0x0 ../../pic32/compiler/pic32-tools/bin/../lib/gcc/pic32mx/4.5.2/../../../../pic32mx/lib\libpic32.a(vector8.o)
 .data          0x00000000        0x0 ../../pic32/compiler/pic32-tools/bin/../lib/gcc/pic32mx/4.5.2/../../../../pic32mx/lib\libpic32.a(vector8.o)
 .bss           0x00000000        0x0 ../../pic32/compiler/pic32-tools/bin/../lib/gcc/pic32mx/4.5.2/../../../../pic32mx/lib\libpic32.a(vector8.o)
 .reginfo       0x00000000       0x18 ../../pic32/compiler/pic32-tools/bin/../lib/gcc/pic32mx/4.5.2/../../../../pic32mx/lib\libpic32.a(vector8.o)
 .text          0x00000000        0x0 ../../pic32/compiler/pic32-tools/bin/../lib/gcc/pic32mx/4.5.2/../../../../pic32mx/lib\libpic32.a(vector9.o)
 .data          0x00000000        0x0 ../../pic32/compiler/pic32-tools/bin/../lib/gcc/pic32mx/4.5.2/../../../../pic32mx/lib\libpic32.a(vector9.o)
 .bss           0x00000000        0x0 ../../pic32/compiler/pic32-tools/bin/../lib/gcc/pic32mx/4.5.2/../../../../pic32mx/lib\libpic32.a(vector9.o)
 .reginfo       0x00000000       0x18 ../../pic32/compiler/pic32-tools/bin/../lib/gcc/pic32mx/4.5.2/../../../../pic32mx/lib\libpic32.a(vector9.o)
 .text          0x00000000        0x0 ../../pic32/compiler/pic32-tools/bin/../lib/gcc/pic32mx/4.5.2/../../../../pic32mx/lib\libpic32.a(vector10.o)
 .data          0x00000000        0x0 ../../pic32/compiler/pic32-tools/bin/../lib/gcc/pic32mx/4.5.2/../../../../pic32mx/lib\libpic32.a(vector10.o)
 .bss           0x00000000        0x0 ../../pic32/compiler/pic32-tools/bin/../lib/gcc/pic32mx/4.5.2/../../../../pic32mx/lib\libpic32.a(vector10.o)
 .reginfo       0x00000000       0x18 ../../pic32/compiler/pic32-tools/bin/../lib/gcc/pic32mx/4.5.2/../../../../pic32mx/lib\libpic32.a(vector10.o)
 .text          0x00000000        0x0 ../../pic32/compiler/pic32-tools/bin/../lib/gcc/pic32mx/4.5.2/../../../../pic32mx/lib\libpic32.a(vector11.o)
 .data          0x00000000        0x0 ../../pic32/compiler/pic32-tools/bin/../lib/gcc/pic32mx/4.5.2/../../../../pic32mx/lib\libpic32.a(vector11.o)
 .bss           0x00000000        0x0 ../../pic32/compiler/pic32-tools/bin/../lib/gcc/pic32mx/4.5.2/../../../../pic32mx/lib\libpic32.a(vector11.o)
 .reginfo       0x00000000       0x18 ../../pic32/compiler/pic32-tools/bin/../lib/gcc/pic32mx/4.5.2/../../../../pic32mx/lib\libpic32.a(vector11.o)
 .text          0x00000000        0x0 ../../pic32/compiler/pic32-tools/bin/../lib/gcc/pic32mx/4.5.2/../../../../pic32mx/lib\libpic32.a(vector12.o)
 .data          0x00000000        0x0 ../../pic32/compiler/pic32-tools/bin/../lib/gcc/pic32mx/4.5.2/../../../../pic32mx/lib\libpic32.a(vector12.o)
 .bss           0x00000000        0x0 ../../pic32/compiler/pic32-tools/bin/../lib/gcc/pic32mx/4.5.2/../../../../pic32mx/lib\libpic32.a(vector12.o)
 .reginfo       0x00000000       0x18 ../../pic32/compiler/pic32-tools/bin/../lib/gcc/pic32mx/4.5.2/../../../../pic32mx/lib\libpic32.a(vector12.o)
 .text          0x00000000        0x0 ../../pic32/compiler/pic32-tools/bin/../lib/gcc/pic32mx/4.5.2/../../../../pic32mx/lib\libpic32.a(vector13.o)
 .data          0x00000000        0x0 ../../pic32/compiler/pic32-tools/bin/../lib/gcc/pic32mx/4.5.2/../../../../pic32mx/lib\libpic32.a(vector13.o)
 .bss           0x00000000        0x0 ../../pic32/compiler/pic32-tools/bin/../lib/gcc/pic32mx/4.5.2/../../../../pic32mx/lib\libpic32.a(vector13.o)
 .reginfo       0x00000000       0x18 ../../pic32/compiler/pic32-tools/bin/../lib/gcc/pic32mx/4.5.2/../../../../pic32mx/lib\libpic32.a(vector13.o)
 .text          0x00000000        0x0 ../../pic32/compiler/pic32-tools/bin/../lib/gcc/pic32mx/4.5.2/../../../../pic32mx/lib\libpic32.a(vector14.o)
 .data          0x00000000        0x0 ../../pic32/compiler/pic32-tools/bin/../lib/gcc/pic32mx/4.5.2/../../../../pic32mx/lib\libpic32.a(vector14.o)
 .bss           0x00000000        0x0 ../../pic32/compiler/pic32-tools/bin/../lib/gcc/pic32mx/4.5.2/../../../../pic32mx/lib\libpic32.a(vector14.o)
 .reginfo       0x00000000       0x18 ../../pic32/compiler/pic32-tools/bin/../lib/gcc/pic32mx/4.5.2/../../../../pic32mx/lib\libpic32.a(vector14.o)
 .text          0x00000000        0x0 ../../pic32/compiler/pic32-tools/bin/../lib/gcc/pic32mx/4.5.2/../../../../pic32mx/lib\libpic32.a(vector15.o)
 .data          0x00000000        0x0 ../../pic32/compiler/pic32-tools/bin/../lib/gcc/pic32mx/4.5.2/../../../../pic32mx/lib\libpic32.a(vector15.o)
 .bss           0x00000000        0x0 ../../pic32/compiler/pic32-tools/bin/../lib/gcc/pic32mx/4.5.2/../../../../pic32mx/lib\libpic32.a(vector15.o)
 .reginfo       0x00000000       0x18 ../../pic32/compiler/pic32-tools/bin/../lib/gcc/pic32mx/4.5.2/../../../../pic32mx/lib\libpic32.a(vector15.o)
 .text          0x00000000        0x0 ../../pic32/compiler/pic32-tools/bin/../lib/gcc/pic32mx/4.5.2/../../../../pic32mx/lib\libpic32.a(vector16.o)
 .data          0x00000000        0x0 ../../pic32/compiler/pic32-tools/bin/../lib/gcc/pic32mx/4.5.2/../../../../pic32mx/lib\libpic32.a(vector16.o)
 .bss           0x00000000        0x0 ../../pic32/compiler/pic32-tools/bin/../lib/gcc/pic32mx/4.5.2/../../../../pic32mx/lib\libpic32.a(vector16.o)
 .reginfo       0x00000000       0x18 ../../pic32/compiler/pic32-tools/bin/../lib/gcc/pic32mx/4.5.2/../../../../pic32mx/lib\libpic32.a(vector16.o)
 .text          0x00000000        0x0 ../../pic32/compiler/pic32-tools/bin/../lib/gcc/pic32mx/4.5.2/../../../../pic32mx/lib\libpic32.a(vector17.o)
 .data          0x00000000        0x0 ../../pic32/compiler/pic32-tools/bin/../lib/gcc/pic32mx/4.5.2/../../../../pic32mx/lib\libpic32.a(vector17.o)
 .bss           0x00000000        0x0 ../../pic32/compiler/pic32-tools/bin/../lib/gcc/pic32mx/4.5.2/../../../../pic32mx/lib\libpic32.a(vector17.o)
 .reginfo       0x00000000       0x18 ../../pic32/compiler/pic32-tools/bin/../lib/gcc/pic32mx/4.5.2/../../../../pic32mx/lib\libpic32.a(vector17.o)
 .text          0x00000000        0x0 ../../pic32/compiler/pic32-tools/bin/../lib/gcc/pic32mx/4.5.2/../../../../pic32mx/lib\libpic32.a(vector18.o)
 .data          0x00000000        0x0 ../../pic32/compiler/pic32-tools/bin/../lib/gcc/pic32mx/4.5.2/../../../../pic32mx/lib\libpic32.a(vector18.o)
 .bss           0x00000000        0x0 ../../pic32/compiler/pic32-tools/bin/../lib/gcc/pic32mx/4.5.2/../../../../pic32mx/lib\libpic32.a(vector18.o)
 .reginfo       0x00000000       0x18 ../../pic32/compiler/pic32-tools/bin/../lib/gcc/pic32mx/4.5.2/../../../../pic32mx/lib\libpic32.a(vector18.o)
 .text          0x00000000        0x0 ../../pic32/compiler/pic32-tools/bin/../lib/gcc/pic32mx/4.5.2/../../../../pic32mx/lib\libpic32.a(vector19.o)
 .data          0x00000000        0x0 ../../pic32/compiler/pic32-tools/bin/../lib/gcc/pic32mx/4.5.2/../../../../pic32mx/lib\libpic32.a(vector19.o)
 .bss           0x00000000        0x0 ../../pic32/compiler/pic32-tools/bin/../lib/gcc/pic32mx/4.5.2/../../../../pic32mx/lib\libpic32.a(vector19.o)
 .reginfo       0x00000000       0x18 ../../pic32/compiler/pic32-tools/bin/../lib/gcc/pic32mx/4.5.2/../../../../pic32mx/lib\libpic32.a(vector19.o)
 .text          0x00000000        0x0 ../../pic32/compiler/pic32-tools/bin/../lib/gcc/pic32mx/4.5.2/../../../../pic32mx/lib\libpic32.a(vector20.o)
 .data          0x00000000        0x0 ../../pic32/compiler/pic32-tools/bin/../lib/gcc/pic32mx/4.5.2/../../../../pic32mx/lib\libpic32.a(vector20.o)
 .bss           0x00000000        0x0 ../../pic32/compiler/pic32-tools/bin/../lib/gcc/pic32mx/4.5.2/../../../../pic32mx/lib\libpic32.a(vector20.o)
 .reginfo       0x00000000       0x18 ../../pic32/compiler/pic32-tools/bin/../lib/gcc/pic32mx/4.5.2/../../../../pic32mx/lib\libpic32.a(vector20.o)
 .text          0x00000000        0x0 ../../pic32/compiler/pic32-tools/bin/../lib/gcc/pic32mx/4.5.2/../../../../pic32mx/lib\libpic32.a(vector21.o)
 .data          0x00000000        0x0 ../../pic32/compiler/pic32-tools/bin/../lib/gcc/pic32mx/4.5.2/../../../../pic32mx/lib\libpic32.a(vector21.o)
 .bss           0x00000000        0x0 ../../pic32/compiler/pic32-tools/bin/../lib/gcc/pic32mx/4.5.2/../../../../pic32mx/lib\libpic32.a(vector21.o)
 .reginfo       0x00000000       0x18 ../../pic32/compiler/pic32-tools/bin/../lib/gcc/pic32mx/4.5.2/../../../../pic32mx/lib\libpic32.a(vector21.o)
 .text          0x00000000        0x0 ../../pic32/compiler/pic32-tools/bin/../lib/gcc/pic32mx/4.5.2/../../../../pic32mx/lib\libpic32.a(vector22.o)
 .data          0x00000000        0x0 ../../pic32/compiler/pic32-tools/bin/../lib/gcc/pic32mx/4.5.2/../../../../pic32mx/lib\libpic32.a(vector22.o)
 .bss           0x00000000        0x0 ../../pic32/compiler/pic32-tools/bin/../lib/gcc/pic32mx/4.5.2/../../../../pic32mx/lib\libpic32.a(vector22.o)
 .reginfo       0x00000000       0x18 ../../pic32/compiler/pic32-tools/bin/../lib/gcc/pic32mx/4.5.2/../../../../pic32mx/lib\libpic32.a(vector22.o)
 .text          0x00000000        0x0 ../../pic32/compiler/pic32-tools/bin/../lib/gcc/pic32mx/4.5.2/../../../../pic32mx/lib\libpic32.a(vector23.o)
 .data          0x00000000        0x0 ../../pic32/compiler/pic32-tools/bin/../lib/gcc/pic32mx/4.5.2/../../../../pic32mx/lib\libpic32.a(vector23.o)
 .bss           0x00000000        0x0 ../../pic32/compiler/pic32-tools/bin/../lib/gcc/pic32mx/4.5.2/../../../../pic32mx/lib\libpic32.a(vector23.o)
 .reginfo       0x00000000       0x18 ../../pic32/compiler/pic32-tools/bin/../lib/gcc/pic32mx/4.5.2/../../../../pic32mx/lib\libpic32.a(vector23.o)
 .text          0x00000000        0x0 ../../pic32/compiler/pic32-tools/bin/../lib/gcc/pic32mx/4.5.2/../../../../pic32mx/lib\libpic32.a(vector24.o)
 .data          0x00000000        0x0 ../../pic32/compiler/pic32-tools/bin/../lib/gcc/pic32mx/4.5.2/../../../../pic32mx/lib\libpic32.a(vector24.o)
 .bss           0x00000000        0x0 ../../pic32/compiler/pic32-tools/bin/../lib/gcc/pic32mx/4.5.2/../../../../pic32mx/lib\libpic32.a(vector24.o)
 .reginfo       0x00000000       0x18 ../../pic32/compiler/pic32-tools/bin/../lib/gcc/pic32mx/4.5.2/../../../../pic32mx/lib\libpic32.a(vector24.o)
 .text          0x00000000        0x0 ../../pic32/compiler/pic32-tools/bin/../lib/gcc/pic32mx/4.5.2/../../../../pic32mx/lib\libpic32.a(vector25.o)
 .data          0x00000000        0x0 ../../pic32/compiler/pic32-tools/bin/../lib/gcc/pic32mx/4.5.2/../../../../pic32mx/lib\libpic32.a(vector25.o)
 .bss           0x00000000        0x0 ../../pic32/compiler/pic32-tools/bin/../lib/gcc/pic32mx/4.5.2/../../../../pic32mx/lib\libpic32.a(vector25.o)
 .reginfo       0x00000000       0x18 ../../pic32/compiler/pic32-tools/bin/../lib/gcc/pic32mx/4.5.2/../../../../pic32mx/lib\libpic32.a(vector25.o)
 .text          0x00000000        0x0 ../../pic32/compiler/pic32-tools/bin/../lib/gcc/pic32mx/4.5.2/../../../../pic32mx/lib\libpic32.a(vector26.o)
 .data          0x00000000        0x0 ../../pic32/compiler/pic32-tools/bin/../lib/gcc/pic32mx/4.5.2/../../../../pic32mx/lib\libpic32.a(vector26.o)
 .bss           0x00000000        0x0 ../../pic32/compiler/pic32-tools/bin/../lib/gcc/pic32mx/4.5.2/../../../../pic32mx/lib\libpic32.a(vector26.o)
 .reginfo       0x00000000       0x18 ../../pic32/compiler/pic32-tools/bin/../lib/gcc/pic32mx/4.5.2/../../../../pic32mx/lib\libpic32.a(vector26.o)
 .text          0x00000000        0x0 ../../pic32/compiler/pic32-tools/bin/../lib/gcc/pic32mx/4.5.2/../../../../pic32mx/lib\libpic32.a(vector27.o)
 .data          0x00000000        0x0 ../../pic32/compiler/pic32-tools/bin/../lib/gcc/pic32mx/4.5.2/../../../../pic32mx/lib\libpic32.a(vector27.o)
 .bss           0x00000000        0x0 ../../pic32/compiler/pic32-tools/bin/../lib/gcc/pic32mx/4.5.2/../../../../pic32mx/lib\libpic32.a(vector27.o)
 .reginfo       0x00000000       0x18 ../../pic32/compiler/pic32-tools/bin/../lib/gcc/pic32mx/4.5.2/../../../../pic32mx/lib\libpic32.a(vector27.o)
 .text          0x00000000        0x0 ../../pic32/compiler/pic32-tools/bin/../lib/gcc/pic32mx/4.5.2/../../../../pic32mx/lib\libpic32.a(vector28.o)
 .data          0x00000000        0x0 ../../pic32/compiler/pic32-tools/bin/../lib/gcc/pic32mx/4.5.2/../../../../pic32mx/lib\libpic32.a(vector28.o)
 .bss           0x00000000        0x0 ../../pic32/compiler/pic32-tools/bin/../lib/gcc/pic32mx/4.5.2/../../../../pic32mx/lib\libpic32.a(vector28.o)
 .reginfo       0x00000000       0x18 ../../pic32/compiler/pic32-tools/bin/../lib/gcc/pic32mx/4.5.2/../../../../pic32mx/lib\libpic32.a(vector28.o)
 .text          0x00000000        0x0 ../../pic32/compiler/pic32-tools/bin/../lib/gcc/pic32mx/4.5.2/../../../../pic32mx/lib\libpic32.a(vector29.o)
 .data          0x00000000        0x0 ../../pic32/compiler/pic32-tools/bin/../lib/gcc/pic32mx/4.5.2/../../../../pic32mx/lib\libpic32.a(vector29.o)
 .bss           0x00000000        0x0 ../../pic32/compiler/pic32-tools/bin/../lib/gcc/pic32mx/4.5.2/../../../../pic32mx/lib\libpic32.a(vector29.o)
 .reginfo       0x00000000       0x18 ../../pic32/compiler/pic32-tools/bin/../lib/gcc/pic32mx/4.5.2/../../../../pic32mx/lib\libpic32.a(vector29.o)
 .text          0x00000000        0x0 ../../pic32/compiler/pic32-tools/bin/../lib/gcc/pic32mx/4.5.2/../../../../pic32mx/lib\libpic32.a(vector30.o)
 .data          0x00000000        0x0 ../../pic32/compiler/pic32-tools/bin/../lib/gcc/pic32mx/4.5.2/../../../../pic32mx/lib\libpic32.a(vector30.o)
 .bss           0x00000000        0x0 ../../pic32/compiler/pic32-tools/bin/../lib/gcc/pic32mx/4.5.2/../../../../pic32mx/lib\libpic32.a(vector30.o)
 .reginfo       0x00000000       0x18 ../../pic32/compiler/pic32-tools/bin/../lib/gcc/pic32mx/4.5.2/../../../../pic32mx/lib\libpic32.a(vector30.o)
 .text          0x00000000        0x0 ../../pic32/compiler/pic32-tools/bin/../lib/gcc/pic32mx/4.5.2/../../../../pic32mx/lib\libpic32.a(vector31.o)
 .data          0x00000000        0x0 ../../pic32/compiler/pic32-tools/bin/../lib/gcc/pic32mx/4.5.2/../../../../pic32mx/lib\libpic32.a(vector31.o)
 .bss           0x00000000        0x0 ../../pic32/compiler/pic32-tools/bin/../lib/gcc/pic32mx/4.5.2/../../../../pic32mx/lib\libpic32.a(vector31.o)
 .reginfo       0x00000000       0x18 ../../pic32/compiler/pic32-tools/bin/../lib/gcc/pic32mx/4.5.2/../../../../pic32mx/lib\libpic32.a(vector31.o)
 .text          0x00000000        0x0 ../../pic32/compiler/pic32-tools/bin/../lib/gcc/pic32mx/4.5.2/../../../../pic32mx/lib\libpic32.a(vector32.o)
 .data          0x00000000        0x0 ../../pic32/compiler/pic32-tools/bin/../lib/gcc/pic32mx/4.5.2/../../../../pic32mx/lib\libpic32.a(vector32.o)
 .bss           0x00000000        0x0 ../../pic32/compiler/pic32-tools/bin/../lib/gcc/pic32mx/4.5.2/../../../../pic32mx/lib\libpic32.a(vector32.o)
 .reginfo       0x00000000       0x18 ../../pic32/compiler/pic32-tools/bin/../lib/gcc/pic32mx/4.5.2/../../../../pic32mx/lib\libpic32.a(vector32.o)
 .text          0x00000000        0x0 ../../pic32/compiler/pic32-tools/bin/../lib/gcc/pic32mx/4.5.2/../../../../pic32mx/lib\libpic32.a(vector33.o)
 .data          0x00000000        0x0 ../../pic32/compiler/pic32-tools/bin/../lib/gcc/pic32mx/4.5.2/../../../../pic32mx/lib\libpic32.a(vector33.o)
 .bss           0x00000000        0x0 ../../pic32/compiler/pic32-tools/bin/../lib/gcc/pic32mx/4.5.2/../../../../pic32mx/lib\libpic32.a(vector33.o)
 .reginfo       0x00000000       0x18 ../../pic32/compiler/pic32-tools/bin/../lib/gcc/pic32mx/4.5.2/../../../../pic32mx/lib\libpic32.a(vector33.o)
 .text          0x00000000        0x0 ../../pic32/compiler/pic32-tools/bin/../lib/gcc/pic32mx/4.5.2/../../../../pic32mx/lib\libpic32.a(vector34.o)
 .data          0x00000000        0x0 ../../pic32/compiler/pic32-tools/bin/../lib/gcc/pic32mx/4.5.2/../../../../pic32mx/lib\libpic32.a(vector34.o)
 .bss           0x00000000        0x0 ../../pic32/compiler/pic32-tools/bin/../lib/gcc/pic32mx/4.5.2/../../../../pic32mx/lib\libpic32.a(vector34.o)
 .reginfo       0x00000000       0x18 ../../pic32/compiler/pic32-tools/bin/../lib/gcc/pic32mx/4.5.2/../../../../pic32mx/lib\libpic32.a(vector34.o)
 .text          0x00000000        0x0 ../../pic32/compiler/pic32-tools/bin/../lib/gcc/pic32mx/4.5.2/../../../../pic32mx/lib\libpic32.a(vector35.o)
 .data          0x00000000        0x0 ../../pic32/compiler/pic32-tools/bin/../lib/gcc/pic32mx/4.5.2/../../../../pic32mx/lib\libpic32.a(vector35.o)
 .bss           0x00000000        0x0 ../../pic32/compiler/pic32-tools/bin/../lib/gcc/pic32mx/4.5.2/../../../../pic32mx/lib\libpic32.a(vector35.o)
 .reginfo       0x00000000       0x18 ../../pic32/compiler/pic32-tools/bin/../lib/gcc/pic32mx/4.5.2/../../../../pic32mx/lib\libpic32.a(vector35.o)
 .text          0x00000000        0x0 ../../pic32/compiler/pic32-tools/bin/../lib/gcc/pic32mx/4.5.2/../../../../pic32mx/lib\libpic32.a(vector36.o)
 .data          0x00000000        0x0 ../../pic32/compiler/pic32-tools/bin/../lib/gcc/pic32mx/4.5.2/../../../../pic32mx/lib\libpic32.a(vector36.o)
 .bss           0x00000000        0x0 ../../pic32/compiler/pic32-tools/bin/../lib/gcc/pic32mx/4.5.2/../../../../pic32mx/lib\libpic32.a(vector36.o)
 .reginfo       0x00000000       0x18 ../../pic32/compiler/pic32-tools/bin/../lib/gcc/pic32mx/4.5.2/../../../../pic32mx/lib\libpic32.a(vector36.o)
 .text          0x00000000        0x0 ../../pic32/compiler/pic32-tools/bin/../lib/gcc/pic32mx/4.5.2/../../../../pic32mx/lib\libpic32.a(vector37.o)
 .data          0x00000000        0x0 ../../pic32/compiler/pic32-tools/bin/../lib/gcc/pic32mx/4.5.2/../../../../pic32mx/lib\libpic32.a(vector37.o)
 .bss           0x00000000        0x0 ../../pic32/compiler/pic32-tools/bin/../lib/gcc/pic32mx/4.5.2/../../../../pic32mx/lib\libpic32.a(vector37.o)
 .reginfo       0x00000000       0x18 ../../pic32/compiler/pic32-tools/bin/../lib/gcc/pic32mx/4.5.2/../../../../pic32mx/lib\libpic32.a(vector37.o)
 .text          0x00000000        0x0 ../../pic32/compiler/pic32-tools/bin/../lib/gcc/pic32mx/4.5.2/../../../../pic32mx/lib\libpic32.a(vector38.o)
 .data          0x00000000        0x0 ../../pic32/compiler/pic32-tools/bin/../lib/gcc/pic32mx/4.5.2/../../../../pic32mx/lib\libpic32.a(vector38.o)
 .bss           0x00000000        0x0 ../../pic32/compiler/pic32-tools/bin/../lib/gcc/pic32mx/4.5.2/../../../../pic32mx/lib\libpic32.a(vector38.o)
 .reginfo       0x00000000       0x18 ../../pic32/compiler/pic32-tools/bin/../lib/gcc/pic32mx/4.5.2/../../../../pic32mx/lib\libpic32.a(vector38.o)
 .text          0x00000000        0x0 ../../pic32/compiler/pic32-tools/bin/../lib/gcc/pic32mx/4.5.2/../../../../pic32mx/lib\libpic32.a(vector39.o)
 .data          0x00000000        0x0 ../../pic32/compiler/pic32-tools/bin/../lib/gcc/pic32mx/4.5.2/../../../../pic32mx/lib\libpic32.a(vector39.o)
 .bss           0x00000000        0x0 ../../pic32/compiler/pic32-tools/bin/../lib/gcc/pic32mx/4.5.2/../../../../pic32mx/lib\libpic32.a(vector39.o)
 .reginfo       0x00000000       0x18 ../../pic32/compiler/pic32-tools/bin/../lib/gcc/pic32mx/4.5.2/../../../../pic32mx/lib\libpic32.a(vector39.o)
 .text          0x00000000        0x0 ../../pic32/compiler/pic32-tools/bin/../lib/gcc/pic32mx/4.5.2/../../../../pic32mx/lib\libpic32.a(vector40.o)
 .data          0x00000000        0x0 ../../pic32/compiler/pic32-tools/bin/../lib/gcc/pic32mx/4.5.2/../../../../pic32mx/lib\libpic32.a(vector40.o)
 .bss           0x00000000        0x0 ../../pic32/compiler/pic32-tools/bin/../lib/gcc/pic32mx/4.5.2/../../../../pic32mx/lib\libpic32.a(vector40.o)
 .reginfo       0x00000000       0x18 ../../pic32/compiler/pic32-tools/bin/../lib/gcc/pic32mx/4.5.2/../../../../pic32mx/lib\libpic32.a(vector40.o)
 .text          0x00000000        0x0 ../../pic32/compiler/pic32-tools/bin/../lib/gcc/pic32mx/4.5.2/../../../../pic32mx/lib\libpic32.a(vector41.o)
 .data          0x00000000        0x0 ../../pic32/compiler/pic32-tools/bin/../lib/gcc/pic32mx/4.5.2/../../../../pic32mx/lib\libpic32.a(vector41.o)
 .bss           0x00000000        0x0 ../../pic32/compiler/pic32-tools/bin/../lib/gcc/pic32mx/4.5.2/../../../../pic32mx/lib\libpic32.a(vector41.o)
 .reginfo       0x00000000       0x18 ../../pic32/compiler/pic32-tools/bin/../lib/gcc/pic32mx/4.5.2/../../../../pic32mx/lib\libpic32.a(vector41.o)
 .text          0x00000000        0x0 ../../pic32/compiler/pic32-tools/bin/../lib/gcc/pic32mx/4.5.2/../../../../pic32mx/lib\libpic32.a(vector42.o)
 .data          0x00000000        0x0 ../../pic32/compiler/pic32-tools/bin/../lib/gcc/pic32mx/4.5.2/../../../../pic32mx/lib\libpic32.a(vector42.o)
 .bss           0x00000000        0x0 ../../pic32/compiler/pic32-tools/bin/../lib/gcc/pic32mx/4.5.2/../../../../pic32mx/lib\libpic32.a(vector42.o)
 .reginfo       0x00000000       0x18 ../../pic32/compiler/pic32-tools/bin/../lib/gcc/pic32mx/4.5.2/../../../../pic32mx/lib\libpic32.a(vector42.o)
 .text          0x00000000        0x0 ../../pic32/compiler/pic32-tools/bin/../lib/gcc/pic32mx/4.5.2/../../../../pic32mx/lib\libpic32.a(vector43.o)
 .data          0x00000000        0x0 ../../pic32/compiler/pic32-tools/bin/../lib/gcc/pic32mx/4.5.2/../../../../pic32mx/lib\libpic32.a(vector43.o)
 .bss           0x00000000        0x0 ../../pic32/compiler/pic32-tools/bin/../lib/gcc/pic32mx/4.5.2/../../../../pic32mx/lib\libpic32.a(vector43.o)
 .reginfo       0x00000000       0x18 ../../pic32/compiler/pic32-tools/bin/../lib/gcc/pic32mx/4.5.2/../../../../pic32mx/lib\libpic32.a(vector43.o)
 .text          0x00000000        0x0 ../../pic32/compiler/pic32-tools/bin/../lib/gcc/pic32mx/4.5.2/../../../../pic32mx/lib\libpic32.a(vector44.o)
 .data          0x00000000        0x0 ../../pic32/compiler/pic32-tools/bin/../lib/gcc/pic32mx/4.5.2/../../../../pic32mx/lib\libpic32.a(vector44.o)
 .bss           0x00000000        0x0 ../../pic32/compiler/pic32-tools/bin/../lib/gcc/pic32mx/4.5.2/../../../../pic32mx/lib\libpic32.a(vector44.o)
 .reginfo       0x00000000       0x18 ../../pic32/compiler/pic32-tools/bin/../lib/gcc/pic32mx/4.5.2/../../../../pic32mx/lib\libpic32.a(vector44.o)
 .text          0x00000000        0x0 ../../pic32/compiler/pic32-tools/bin/../lib/gcc/pic32mx/4.5.2/../../../../pic32mx/lib\libpic32.a(vector45.o)
 .data          0x00000000        0x0 ../../pic32/compiler/pic32-tools/bin/../lib/gcc/pic32mx/4.5.2/../../../../pic32mx/lib\libpic32.a(vector45.o)
 .bss           0x00000000        0x0 ../../pic32/compiler/pic32-tools/bin/../lib/gcc/pic32mx/4.5.2/../../../../pic32mx/lib\libpic32.a(vector45.o)
 .reginfo       0x00000000       0x18 ../../pic32/compiler/pic32-tools/bin/../lib/gcc/pic32mx/4.5.2/../../../../pic32mx/lib\libpic32.a(vector45.o)
 .text          0x00000000        0x0 ../../pic32/compiler/pic32-tools/bin/../lib/gcc/pic32mx/4.5.2/../../../../pic32mx/lib\libpic32.a(vector46.o)
 .data          0x00000000        0x0 ../../pic32/compiler/pic32-tools/bin/../lib/gcc/pic32mx/4.5.2/../../../../pic32mx/lib\libpic32.a(vector46.o)
 .bss           0x00000000        0x0 ../../pic32/compiler/pic32-tools/bin/../lib/gcc/pic32mx/4.5.2/../../../../pic32mx/lib\libpic32.a(vector46.o)
 .reginfo       0x00000000       0x18 ../../pic32/compiler/pic32-tools/bin/../lib/gcc/pic32mx/4.5.2/../../../../pic32mx/lib\libpic32.a(vector46.o)
 .text          0x00000000        0x0 ../../pic32/compiler/pic32-tools/bin/../lib/gcc/pic32mx/4.5.2/../../../../pic32mx/lib\libpic32.a(vector47.o)
 .data          0x00000000        0x0 ../../pic32/compiler/pic32-tools/bin/../lib/gcc/pic32mx/4.5.2/../../../../pic32mx/lib\libpic32.a(vector47.o)
 .bss           0x00000000        0x0 ../../pic32/compiler/pic32-tools/bin/../lib/gcc/pic32mx/4.5.2/../../../../pic32mx/lib\libpic32.a(vector47.o)
 .reginfo       0x00000000       0x18 ../../pic32/compiler/pic32-tools/bin/../lib/gcc/pic32mx/4.5.2/../../../../pic32mx/lib\libpic32.a(vector47.o)
 .text          0x00000000        0x0 ../../pic32/compiler/pic32-tools/bin/../lib/gcc/pic32mx/4.5.2/../../../../pic32mx/lib\libpic32.a(vector48.o)
 .data          0x00000000        0x0 ../../pic32/compiler/pic32-tools/bin/../lib/gcc/pic32mx/4.5.2/../../../../pic32mx/lib\libpic32.a(vector48.o)
 .bss           0x00000000        0x0 ../../pic32/compiler/pic32-tools/bin/../lib/gcc/pic32mx/4.5.2/../../../../pic32mx/lib\libpic32.a(vector48.o)
 .reginfo       0x00000000       0x18 ../../pic32/compiler/pic32-tools/bin/../lib/gcc/pic32mx/4.5.2/../../../../pic32mx/lib\libpic32.a(vector48.o)
 .text          0x00000000        0x0 ../../pic32/compiler/pic32-tools/bin/../lib/gcc/pic32mx/4.5.2/../../../../pic32mx/lib\libpic32.a(vector49.o)
 .data          0x00000000        0x0 ../../pic32/compiler/pic32-tools/bin/../lib/gcc/pic32mx/4.5.2/../../../../pic32mx/lib\libpic32.a(vector49.o)
 .bss           0x00000000        0x0 ../../pic32/compiler/pic32-tools/bin/../lib/gcc/pic32mx/4.5.2/../../../../pic32mx/lib\libpic32.a(vector49.o)
 .reginfo       0x00000000       0x18 ../../pic32/compiler/pic32-tools/bin/../lib/gcc/pic32mx/4.5.2/../../../../pic32mx/lib\libpic32.a(vector49.o)
 .text          0x00000000        0x0 ../../pic32/compiler/pic32-tools/bin/../lib/gcc/pic32mx/4.5.2/../../../../pic32mx/lib\libpic32.a(vector50.o)
 .data          0x00000000        0x0 ../../pic32/compiler/pic32-tools/bin/../lib/gcc/pic32mx/4.5.2/../../../../pic32mx/lib\libpic32.a(vector50.o)
 .bss           0x00000000        0x0 ../../pic32/compiler/pic32-tools/bin/../lib/gcc/pic32mx/4.5.2/../../../../pic32mx/lib\libpic32.a(vector50.o)
 .reginfo       0x00000000       0x18 ../../pic32/compiler/pic32-tools/bin/../lib/gcc/pic32mx/4.5.2/../../../../pic32mx/lib\libpic32.a(vector50.o)
 .text          0x00000000        0x0 ../../pic32/compiler/pic32-tools/bin/../lib/gcc/pic32mx/4.5.2/../../../../pic32mx/lib\libpic32.a(vector51.o)
 .data          0x00000000        0x0 ../../pic32/compiler/pic32-tools/bin/../lib/gcc/pic32mx/4.5.2/../../../../pic32mx/lib\libpic32.a(vector51.o)
 .bss           0x00000000        0x0 ../../pic32/compiler/pic32-tools/bin/../lib/gcc/pic32mx/4.5.2/../../../../pic32mx/lib\libpic32.a(vector51.o)
 .reginfo       0x00000000       0x18 ../../pic32/compiler/pic32-tools/bin/../lib/gcc/pic32mx/4.5.2/../../../../pic32mx/lib\libpic32.a(vector51.o)
 .text          0x00000000        0x0 ../../pic32/compiler/pic32-tools/bin/../lib/gcc/pic32mx/4.5.2/../../../../pic32mx/lib\libpic32.a(vector52.o)
 .data          0x00000000        0x0 ../../pic32/compiler/pic32-tools/bin/../lib/gcc/pic32mx/4.5.2/../../../../pic32mx/lib\libpic32.a(vector52.o)
 .bss           0x00000000        0x0 ../../pic32/compiler/pic32-tools/bin/../lib/gcc/pic32mx/4.5.2/../../../../pic32mx/lib\libpic32.a(vector52.o)
 .reginfo       0x00000000       0x18 ../../pic32/compiler/pic32-tools/bin/../lib/gcc/pic32mx/4.5.2/../../../../pic32mx/lib\libpic32.a(vector52.o)
 .text          0x00000000        0x0 ../../pic32/compiler/pic32-tools/bin/../lib/gcc/pic32mx/4.5.2/../../../../pic32mx/lib\libpic32.a(vector53.o)
 .data          0x00000000        0x0 ../../pic32/compiler/pic32-tools/bin/../lib/gcc/pic32mx/4.5.2/../../../../pic32mx/lib\libpic32.a(vector53.o)
 .bss           0x00000000        0x0 ../../pic32/compiler/pic32-tools/bin/../lib/gcc/pic32mx/4.5.2/../../../../pic32mx/lib\libpic32.a(vector53.o)
 .reginfo       0x00000000       0x18 ../../pic32/compiler/pic32-tools/bin/../lib/gcc/pic32mx/4.5.2/../../../../pic32mx/lib\libpic32.a(vector53.o)
 .text          0x00000000        0x0 ../../pic32/compiler/pic32-tools/bin/../lib/gcc/pic32mx/4.5.2/../../../../pic32mx/lib\libpic32.a(vector54.o)
 .data          0x00000000        0x0 ../../pic32/compiler/pic32-tools/bin/../lib/gcc/pic32mx/4.5.2/../../../../pic32mx/lib\libpic32.a(vector54.o)
 .bss           0x00000000        0x0 ../../pic32/compiler/pic32-tools/bin/../lib/gcc/pic32mx/4.5.2/../../../../pic32mx/lib\libpic32.a(vector54.o)
 .reginfo       0x00000000       0x18 ../../pic32/compiler/pic32-tools/bin/../lib/gcc/pic32mx/4.5.2/../../../../pic32mx/lib\libpic32.a(vector54.o)
 .text          0x00000000        0x0 ../../pic32/compiler/pic32-tools/bin/../lib/gcc/pic32mx/4.5.2/../../../../pic32mx/lib\libpic32.a(vector55.o)
 .data          0x00000000        0x0 ../../pic32/compiler/pic32-tools/bin/../lib/gcc/pic32mx/4.5.2/../../../../pic32mx/lib\libpic32.a(vector55.o)
 .bss           0x00000000        0x0 ../../pic32/compiler/pic32-tools/bin/../lib/gcc/pic32mx/4.5.2/../../../../pic32mx/lib\libpic32.a(vector55.o)
 .reginfo       0x00000000       0x18 ../../pic32/compiler/pic32-tools/bin/../lib/gcc/pic32mx/4.5.2/../../../../pic32mx/lib\libpic32.a(vector55.o)
 .text          0x00000000        0x0 ../../pic32/compiler/pic32-tools/bin/../lib/gcc/pic32mx/4.5.2/../../../../pic32mx/lib\libpic32.a(vector56.o)
 .data          0x00000000        0x0 ../../pic32/compiler/pic32-tools/bin/../lib/gcc/pic32mx/4.5.2/../../../../pic32mx/lib\libpic32.a(vector56.o)
 .bss           0x00000000        0x0 ../../pic32/compiler/pic32-tools/bin/../lib/gcc/pic32mx/4.5.2/../../../../pic32mx/lib\libpic32.a(vector56.o)
 .reginfo       0x00000000       0x18 ../../pic32/compiler/pic32-tools/bin/../lib/gcc/pic32mx/4.5.2/../../../../pic32mx/lib\libpic32.a(vector56.o)
 .text          0x00000000        0x0 ../../pic32/compiler/pic32-tools/bin/../lib/gcc/pic32mx/4.5.2/../../../../pic32mx/lib\libpic32.a(vector57.o)
 .data          0x00000000        0x0 ../../pic32/compiler/pic32-tools/bin/../lib/gcc/pic32mx/4.5.2/../../../../pic32mx/lib\libpic32.a(vector57.o)
 .bss           0x00000000        0x0 ../../pic32/compiler/pic32-tools/bin/../lib/gcc/pic32mx/4.5.2/../../../../pic32mx/lib\libpic32.a(vector57.o)
 .reginfo       0x00000000       0x18 ../../pic32/compiler/pic32-tools/bin/../lib/gcc/pic32mx/4.5.2/../../../../pic32mx/lib\libpic32.a(vector57.o)
 .text          0x00000000        0x0 ../../pic32/compiler/pic32-tools/bin/../lib/gcc/pic32mx/4.5.2/../../../../pic32mx/lib\libpic32.a(vector58.o)
 .data          0x00000000        0x0 ../../pic32/compiler/pic32-tools/bin/../lib/gcc/pic32mx/4.5.2/../../../../pic32mx/lib\libpic32.a(vector58.o)
 .bss           0x00000000        0x0 ../../pic32/compiler/pic32-tools/bin/../lib/gcc/pic32mx/4.5.2/../../../../pic32mx/lib\libpic32.a(vector58.o)
 .reginfo       0x00000000       0x18 ../../pic32/compiler/pic32-tools/bin/../lib/gcc/pic32mx/4.5.2/../../../../pic32mx/lib\libpic32.a(vector58.o)
 .text          0x00000000        0x0 ../../pic32/compiler/pic32-tools/bin/../lib/gcc/pic32mx/4.5.2/../../../../pic32mx/lib\libpic32.a(vector59.o)
 .data          0x00000000        0x0 ../../pic32/compiler/pic32-tools/bin/../lib/gcc/pic32mx/4.5.2/../../../../pic32mx/lib\libpic32.a(vector59.o)
 .bss           0x00000000        0x0 ../../pic32/compiler/pic32-tools/bin/../lib/gcc/pic32mx/4.5.2/../../../../pic32mx/lib\libpic32.a(vector59.o)
 .reginfo       0x00000000       0x18 ../../pic32/compiler/pic32-tools/bin/../lib/gcc/pic32mx/4.5.2/../../../../pic32mx/lib\libpic32.a(vector59.o)
 .text          0x00000000        0x0 ../../pic32/compiler/pic32-tools/bin/../lib/gcc/pic32mx/4.5.2/../../../../pic32mx/lib\libpic32.a(vector60.o)
 .data          0x00000000        0x0 ../../pic32/compiler/pic32-tools/bin/../lib/gcc/pic32mx/4.5.2/../../../../pic32mx/lib\libpic32.a(vector60.o)
 .bss           0x00000000        0x0 ../../pic32/compiler/pic32-tools/bin/../lib/gcc/pic32mx/4.5.2/../../../../pic32mx/lib\libpic32.a(vector60.o)
 .reginfo       0x00000000       0x18 ../../pic32/compiler/pic32-tools/bin/../lib/gcc/pic32mx/4.5.2/../../../../pic32mx/lib\libpic32.a(vector60.o)
 .text          0x00000000        0x0 ../../pic32/compiler/pic32-tools/bin/../lib/gcc/pic32mx/4.5.2/../../../../pic32mx/lib\libpic32.a(vector61.o)
 .data          0x00000000        0x0 ../../pic32/compiler/pic32-tools/bin/../lib/gcc/pic32mx/4.5.2/../../../../pic32mx/lib\libpic32.a(vector61.o)
 .bss           0x00000000        0x0 ../../pic32/compiler/pic32-tools/bin/../lib/gcc/pic32mx/4.5.2/../../../../pic32mx/lib\libpic32.a(vector61.o)
 .reginfo       0x00000000       0x18 ../../pic32/compiler/pic32-tools/bin/../lib/gcc/pic32mx/4.5.2/../../../../pic32mx/lib\libpic32.a(vector61.o)
 .text          0x00000000        0x0 ../../pic32/compiler/pic32-tools/bin/../lib/gcc/pic32mx/4.5.2/../../../../pic32mx/lib\libpic32.a(vector62.o)
 .data          0x00000000        0x0 ../../pic32/compiler/pic32-tools/bin/../lib/gcc/pic32mx/4.5.2/../../../../pic32mx/lib\libpic32.a(vector62.o)
 .bss           0x00000000        0x0 ../../pic32/compiler/pic32-tools/bin/../lib/gcc/pic32mx/4.5.2/../../../../pic32mx/lib\libpic32.a(vector62.o)
 .reginfo       0x00000000       0x18 ../../pic32/compiler/pic32-tools/bin/../lib/gcc/pic32mx/4.5.2/../../../../pic32mx/lib\libpic32.a(vector62.o)
 .text          0x00000000        0x0 ../../pic32/compiler/pic32-tools/bin/../lib/gcc/pic32mx/4.5.2/../../../../pic32mx/lib\libpic32.a(vector63.o)
 .data          0x00000000        0x0 ../../pic32/compiler/pic32-tools/bin/../lib/gcc/pic32mx/4.5.2/../../../../pic32mx/lib\libpic32.a(vector63.o)
 .bss           0x00000000        0x0 ../../pic32/compiler/pic32-tools/bin/../lib/gcc/pic32mx/4.5.2/../../../../pic32mx/lib\libpic32.a(vector63.o)
 .reginfo       0x00000000       0x18 ../../pic32/compiler/pic32-tools/bin/../lib/gcc/pic32mx/4.5.2/../../../../pic32mx/lib\libpic32.a(vector63.o)
 .text          0x00000000        0x0 ../../pic32/compiler/pic32-tools/bin/../lib/gcc/pic32mx/4.5.2/../../../../pic32mx/lib\libpic32.a(_mon_putc.o)
 .data          0x00000000        0x0 ../../pic32/compiler/pic32-tools/bin/../lib/gcc/pic32mx/4.5.2/../../../../pic32mx/lib\libpic32.a(_mon_putc.o)
 .bss           0x00000000        0x0 ../../pic32/compiler/pic32-tools/bin/../lib/gcc/pic32mx/4.5.2/../../../../pic32mx/lib\libpic32.a(_mon_putc.o)
 .reginfo       0x00000000       0x18 ../../pic32/compiler/pic32-tools/bin/../lib/gcc/pic32mx/4.5.2/../../../../pic32mx/lib\libpic32.a(_mon_putc.o)
 .text          0x00000000        0x0 ../../pic32/compiler/pic32-tools/bin/../lib/gcc/pic32mx/4.5.2/../../../../pic32mx/lib\libpic32.a(defaultinterrupt.o)
 .data          0x00000000        0x0 ../../pic32/compiler/pic32-tools/bin/../lib/gcc/pic32mx/4.5.2/../../../../pic32mx/lib\libpic32.a(defaultinterrupt.o)
 .bss           0x00000000        0x0 ../../pic32/compiler/pic32-tools/bin/../lib/gcc/pic32mx/4.5.2/../../../../pic32mx/lib\libpic32.a(defaultinterrupt.o)
 .reginfo       0x00000000       0x18 ../../pic32/compiler/pic32-tools/bin/../lib/gcc/pic32mx/4.5.2/../../../../pic32mx/lib\libpic32.a(defaultinterrupt.o)
 .data          0x00000000        0x0 ../../pic32/compiler/pic32-tools/bin/../lib/gcc/pic32mx/4.5.2\libgcc.a(_udivdi3.o)
 .bss           0x00000000        0x0 ../../pic32/compiler/pic32-tools/bin/../lib/gcc/pic32mx/4.5.2\libgcc.a(_udivdi3.o)
 .reginfo       0x00000000       0x18 ../../pic32/compiler/pic32-tools/bin/../lib/gcc/pic32mx/4.5.2\libgcc.a(_udivdi3.o)
 .data          0x00000000        0x0 ../../pic32/compiler/pic32-tools/bin/../lib/gcc/pic32mx/4.5.2\libgcc.a(_umoddi3.o)
 .bss           0x00000000        0x0 ../../pic32/compiler/pic32-tools/bin/../lib/gcc/pic32mx/4.5.2\libgcc.a(_umoddi3.o)
 .reginfo       0x00000000       0x18 ../../pic32/compiler/pic32-tools/bin/../lib/gcc/pic32mx/4.5.2\libgcc.a(_umoddi3.o)
 .data          0x00000000        0x0 ../../pic32/compiler/pic32-tools/bin/../lib/gcc/pic32mx/4.5.2\libgcc.a(ledf2.o)
 .bss           0x00000000        0x0 ../../pic32/compiler/pic32-tools/bin/../lib/gcc/pic32mx/4.5.2\libgcc.a(ledf2.o)
 .reginfo       0x00000000       0x18 ../../pic32/compiler/pic32-tools/bin/../lib/gcc/pic32mx/4.5.2\libgcc.a(ledf2.o)
 .text          0x00000000        0x0 ../../pic32/compiler/pic32-tools/bin/../lib/gcc/pic32mx/4.5.2/../../../../pic32mx/lib\libmchp_peripheral_32MX250F128B.a(osc_config_lib.o)
 .data          0x00000000        0x0 ../../pic32/compiler/pic32-tools/bin/../lib/gcc/pic32mx/4.5.2/../../../../pic32mx/lib\libmchp_peripheral_32MX250F128B.a(osc_config_lib.o)
 .bss           0x00000000        0x0 ../../pic32/compiler/pic32-tools/bin/../lib/gcc/pic32mx/4.5.2/../../../../pic32mx/lib\libmchp_peripheral_32MX250F128B.a(osc_config_lib.o)
 .reginfo       0x00000000       0x18 ../../pic32/compiler/pic32-tools/bin/../lib/gcc/pic32mx/4.5.2/../../../../pic32mx/lib\libmchp_peripheral_32MX250F128B.a(osc_config_lib.o)
 .pdr           0x00000000       0x20 ../../pic32/compiler/pic32-tools/bin/../lib/gcc/pic32mx/4.5.2/../../../../pic32mx/lib\libmchp_peripheral_32MX250F128B.a(osc_config_lib.o)
 .text          0x00000000        0x0 ../../pic32/compiler/pic32-tools/bin/../lib/gcc/pic32mx/4.5.2/../../../../pic32mx/lib\libmchp_peripheral_32MX250F128B.a(int_disable_interrupts_lib.o)
 .data          0x00000000        0x0 ../../pic32/compiler/pic32-tools/bin/../lib/gcc/pic32mx/4.5.2/../../../../pic32mx/lib\libmchp_peripheral_32MX250F128B.a(int_disable_interrupts_lib.o)
 .bss           0x00000000        0x0 ../../pic32/compiler/pic32-tools/bin/../lib/gcc/pic32mx/4.5.2/../../../../pic32mx/lib\libmchp_peripheral_32MX250F128B.a(int_disable_interrupts_lib.o)
 .reginfo       0x00000000       0x18 ../../pic32/compiler/pic32-tools/bin/../lib/gcc/pic32mx/4.5.2/../../../../pic32mx/lib\libmchp_peripheral_32MX250F128B.a(int_disable_interrupts_lib.o)
 .pdr           0x00000000       0x20 ../../pic32/compiler/pic32-tools/bin/../lib/gcc/pic32mx/4.5.2/../../../../pic32mx/lib\libmchp_peripheral_32MX250F128B.a(int_disable_interrupts_lib.o)
 .text          0x00000000        0x0 ../../pic32/compiler/pic32-tools/bin/../lib/gcc/pic32mx/4.5.2/../../../../pic32mx/lib\libmchp_peripheral_32MX250F128B.a(int_restore_interrupts_lib.o)
 .data          0x00000000        0x0 ../../pic32/compiler/pic32-tools/bin/../lib/gcc/pic32mx/4.5.2/../../../../pic32mx/lib\libmchp_peripheral_32MX250F128B.a(int_restore_interrupts_lib.o)
 .bss           0x00000000        0x0 ../../pic32/compiler/pic32-tools/bin/../lib/gcc/pic32mx/4.5.2/../../../../pic32mx/lib\libmchp_peripheral_32MX250F128B.a(int_restore_interrupts_lib.o)
 .reginfo       0x00000000       0x18 ../../pic32/compiler/pic32-tools/bin/../lib/gcc/pic32mx/4.5.2/../../../../pic32mx/lib\libmchp_peripheral_32MX250F128B.a(int_restore_interrupts_lib.o)
 .pdr           0x00000000       0x20 ../../pic32/compiler/pic32-tools/bin/../lib/gcc/pic32mx/4.5.2/../../../../pic32mx/lib\libmchp_peripheral_32MX250F128B.a(int_restore_interrupts_lib.o)
 .text          0x00000000        0x0 ../../pic32/compiler/pic32-tools/bin/../lib/gcc/pic32mx/4.5.2/../../../../pic32mx/lib\libmchp_peripheral_32MX250F128B.a(spi_getc_spi2_lib_legacy.o)
 .data          0x00000000        0x0 ../../pic32/compiler/pic32-tools/bin/../lib/gcc/pic32mx/4.5.2/../../../../pic32mx/lib\libmchp_peripheral_32MX250F128B.a(spi_getc_spi2_lib_legacy.o)
 .bss           0x00000000        0x0 ../../pic32/compiler/pic32-tools/bin/../lib/gcc/pic32mx/4.5.2/../../../../pic32mx/lib\libmchp_peripheral_32MX250F128B.a(spi_getc_spi2_lib_legacy.o)
 .reginfo       0x00000000       0x18 ../../pic32/compiler/pic32-tools/bin/../lib/gcc/pic32mx/4.5.2/../../../../pic32mx/lib\libmchp_peripheral_32MX250F128B.a(spi_getc_spi2_lib_legacy.o)
 .pdr           0x00000000       0x20 ../../pic32/compiler/pic32-tools/bin/../lib/gcc/pic32mx/4.5.2/../../../../pic32mx/lib\libmchp_peripheral_32MX250F128B.a(spi_getc_spi2_lib_legacy.o)
 .text.getcSPI2
                0x00000000       0x20 ../../pic32/compiler/pic32-tools/bin/../lib/gcc/pic32mx/4.5.2/../../../../pic32mx/lib\libmchp_peripheral_32MX250F128B.a(spi_getc_spi2_lib_legacy.o)
 .text          0x00000000        0x0 ../../pic32/compiler/pic32-tools/bin/../lib/gcc/pic32mx/4.5.2/../../../../pic32mx/lib\libmchp_peripheral_32MX250F128B.a(spi_open_spi2_lib_legacy.o)
 .data          0x00000000        0x0 ../../pic32/compiler/pic32-tools/bin/../lib/gcc/pic32mx/4.5.2/../../../../pic32mx/lib\libmchp_peripheral_32MX250F128B.a(spi_open_spi2_lib_legacy.o)
 .bss           0x00000000        0x0 ../../pic32/compiler/pic32-tools/bin/../lib/gcc/pic32mx/4.5.2/../../../../pic32mx/lib\libmchp_peripheral_32MX250F128B.a(spi_open_spi2_lib_legacy.o)
 .reginfo       0x00000000       0x18 ../../pic32/compiler/pic32-tools/bin/../lib/gcc/pic32mx/4.5.2/../../../../pic32mx/lib\libmchp_peripheral_32MX250F128B.a(spi_open_spi2_lib_legacy.o)
 .pdr           0x00000000       0x20 ../../pic32/compiler/pic32-tools/bin/../lib/gcc/pic32mx/4.5.2/../../../../pic32mx/lib\libmchp_peripheral_32MX250F128B.a(spi_open_spi2_lib_legacy.o)
 .text.OpenSPI2
                0x00000000       0x60 ../../pic32/compiler/pic32-tools/bin/../lib/gcc/pic32mx/4.5.2/../../../../pic32mx/lib\libmchp_peripheral_32MX250F128B.a(spi_open_spi2_lib_legacy.o)
 .text          0x00000000        0x0 ../../pic32/compiler/pic32-tools/bin/../lib/gcc/pic32mx/4.5.2/../../../../pic32mx/lib\libmchp_peripheral_32MX250F128B.a(spi_brg_tbl_lib_legacy.o)
 .data          0x00000000        0x0 ../../pic32/compiler/pic32-tools/bin/../lib/gcc/pic32mx/4.5.2/../../../../pic32mx/lib\libmchp_peripheral_32MX250F128B.a(spi_brg_tbl_lib_legacy.o)
 .bss           0x00000000        0x0 ../../pic32/compiler/pic32-tools/bin/../lib/gcc/pic32mx/4.5.2/../../../../pic32mx/lib\libmchp_peripheral_32MX250F128B.a(spi_brg_tbl_lib_legacy.o)
 .reginfo       0x00000000       0x18 ../../pic32/compiler/pic32-tools/bin/../lib/gcc/pic32mx/4.5.2/../../../../pic32mx/lib\libmchp_peripheral_32MX250F128B.a(spi_brg_tbl_lib_legacy.o)
 .pdr           0x00000000        0x0 ../../pic32/compiler/pic32-tools/bin/../lib/gcc/pic32mx/4.5.2/../../../../pic32mx/lib\libmchp_peripheral_32MX250F128B.a(spi_brg_tbl_lib_legacy.o)
 .rodata        0x00000000       0x80 ../../pic32/compiler/pic32-tools/bin/../lib/gcc/pic32mx/4.5.2/../../../../pic32mx/lib\libmchp_peripheral_32MX250F128B.a(spi_brg_tbl_lib_legacy.o)
 .text          0x00000000        0x0 ../../pic32/compiler/pic32-tools/bin/../lib/gcc/pic32mx/4.5.2/../../../../pic32mx/lib\libmchp_peripheral_32MX250F128B.a(dma_chn_clr_ev_flags_lib.o)
 .data          0x00000000        0x0 ../../pic32/compiler/pic32-tools/bin/../lib/gcc/pic32mx/4.5.2/../../../../pic32mx/lib\libmchp_peripheral_32MX250F128B.a(dma_chn_clr_ev_flags_lib.o)
 .bss           0x00000000        0x0 ../../pic32/compiler/pic32-tools/bin/../lib/gcc/pic32mx/4.5.2/../../../../pic32mx/lib\libmchp_peripheral_32MX250F128B.a(dma_chn_clr_ev_flags_lib.o)
 .reginfo       0x00000000       0x18 ../../pic32/compiler/pic32-tools/bin/../lib/gcc/pic32mx/4.5.2/../../../../pic32mx/lib\libmchp_peripheral_32MX250F128B.a(dma_chn_clr_ev_flags_lib.o)
 .pdr           0x00000000       0x20 ../../pic32/compiler/pic32-tools/bin/../lib/gcc/pic32mx/4.5.2/../../../../pic32mx/lib\libmchp_peripheral_32MX250F128B.a(dma_chn_clr_ev_flags_lib.o)
 .text.DmaChnClrEvFlags
                0x00000000       0x20 ../../pic32/compiler/pic32-tools/bin/../lib/gcc/pic32mx/4.5.2/../../../../pic32mx/lib\libmchp_peripheral_32MX250F128B.a(dma_chn_clr_ev_flags_lib.o)
 .text          0x00000000        0x0 ../../pic32/compiler/pic32-tools/bin/../lib/gcc/pic32mx/4.5.2/../../../../pic32mx/lib\libmchp_peripheral_32MX250F128B.a(dma_chn_open_lib.o)
 .data          0x00000000        0x0 ../../pic32/compiler/pic32-tools/bin/../lib/gcc/pic32mx/4.5.2/../../../../pic32mx/lib\libmchp_peripheral_32MX250F128B.a(dma_chn_open_lib.o)
 .bss           0x00000000        0x0 ../../pic32/compiler/pic32-tools/bin/../lib/gcc/pic32mx/4.5.2/../../../../pic32mx/lib\libmchp_peripheral_32MX250F128B.a(dma_chn_open_lib.o)
 .reginfo       0x00000000       0x18 ../../pic32/compiler/pic32-tools/bin/../lib/gcc/pic32mx/4.5.2/../../../../pic32mx/lib\libmchp_peripheral_32MX250F128B.a(dma_chn_open_lib.o)
 .pdr           0x00000000       0x20 ../../pic32/compiler/pic32-tools/bin/../lib/gcc/pic32mx/4.5.2/../../../../pic32mx/lib\libmchp_peripheral_32MX250F128B.a(dma_chn_open_lib.o)
 .text.DmaChnOpen
                0x00000000       0xec ../../pic32/compiler/pic32-tools/bin/../lib/gcc/pic32mx/4.5.2/../../../../pic32mx/lib\libmchp_peripheral_32MX250F128B.a(dma_chn_open_lib.o)
 .text          0x00000000        0x0 ../../pic32/compiler/pic32-tools/bin/../lib/gcc/pic32mx/4.5.2/../../../../pic32mx/lib\libmchp_peripheral_32MX250F128B.a(dma_chn_enable_lib.o)
 .data          0x00000000        0x0 ../../pic32/compiler/pic32-tools/bin/../lib/gcc/pic32mx/4.5.2/../../../../pic32mx/lib\libmchp_peripheral_32MX250F128B.a(dma_chn_enable_lib.o)
 .bss           0x00000000        0x0 ../../pic32/compiler/pic32-tools/bin/../lib/gcc/pic32mx/4.5.2/../../../../pic32mx/lib\libmchp_peripheral_32MX250F128B.a(dma_chn_enable_lib.o)
 .reginfo       0x00000000       0x18 ../../pic32/compiler/pic32-tools/bin/../lib/gcc/pic32mx/4.5.2/../../../../pic32mx/lib\libmchp_peripheral_32MX250F128B.a(dma_chn_enable_lib.o)
 .pdr           0x00000000       0x20 ../../pic32/compiler/pic32-tools/bin/../lib/gcc/pic32mx/4.5.2/../../../../pic32mx/lib\libmchp_peripheral_32MX250F128B.a(dma_chn_enable_lib.o)
 .text.DmaChnEnable
                0x00000000       0x24 ../../pic32/compiler/pic32-tools/bin/../lib/gcc/pic32mx/4.5.2/../../../../pic32mx/lib\libmchp_peripheral_32MX250F128B.a(dma_chn_enable_lib.o)
 .text          0x00000000        0x0 ../../pic32/compiler/pic32-tools/bin/../lib/gcc/pic32mx/4.5.2/../../../../pic32mx/lib\libmchp_peripheral_32MX250F128B.a(dma_chn_get_ev_flags_lib.o)
 .data          0x00000000        0x0 ../../pic32/compiler/pic32-tools/bin/../lib/gcc/pic32mx/4.5.2/../../../../pic32mx/lib\libmchp_peripheral_32MX250F128B.a(dma_chn_get_ev_flags_lib.o)
 .bss           0x00000000        0x0 ../../pic32/compiler/pic32-tools/bin/../lib/gcc/pic32mx/4.5.2/../../../../pic32mx/lib\libmchp_peripheral_32MX250F128B.a(dma_chn_get_ev_flags_lib.o)
 .reginfo       0x00000000       0x18 ../../pic32/compiler/pic32-tools/bin/../lib/gcc/pic32mx/4.5.2/../../../../pic32mx/lib\libmchp_peripheral_32MX250F128B.a(dma_chn_get_ev_flags_lib.o)
 .pdr           0x00000000       0x20 ../../pic32/compiler/pic32-tools/bin/../lib/gcc/pic32mx/4.5.2/../../../../pic32mx/lib\libmchp_peripheral_32MX250F128B.a(dma_chn_get_ev_flags_lib.o)
 .text.DmaChnGetEvFlags
                0x00000000       0x20 ../../pic32/compiler/pic32-tools/bin/../lib/gcc/pic32mx/4.5.2/../../../../pic32mx/lib\libmchp_peripheral_32MX250F128B.a(dma_chn_get_ev_flags_lib.o)
 .text          0x00000000        0x0 ../../pic32/compiler/pic32-tools/bin/../lib/gcc/pic32mx/4.5.2/../../../../pic32mx/lib\libmchp_peripheral_32MX250F128B.a(dma_chn_write_event_control_flags_lib.o)
 .data          0x00000000        0x0 ../../pic32/compiler/pic32-tools/bin/../lib/gcc/pic32mx/4.5.2/../../../../pic32mx/lib\libmchp_peripheral_32MX250F128B.a(dma_chn_write_event_control_flags_lib.o)
 .bss           0x00000000        0x0 ../../pic32/compiler/pic32-tools/bin/../lib/gcc/pic32mx/4.5.2/../../../../pic32mx/lib\libmchp_peripheral_32MX250F128B.a(dma_chn_write_event_control_flags_lib.o)
 .reginfo       0x00000000       0x18 ../../pic32/compiler/pic32-tools/bin/../lib/gcc/pic32mx/4.5.2/../../../../pic32mx/lib\libmchp_peripheral_32MX250F128B.a(dma_chn_write_event_control_flags_lib.o)
 .pdr           0x00000000       0x20 ../../pic32/compiler/pic32-tools/bin/../lib/gcc/pic32mx/4.5.2/../../../../pic32mx/lib\libmchp_peripheral_32MX250F128B.a(dma_chn_write_event_control_flags_lib.o)
 .text.DmaChnWriteEventControlFlags
                0x00000000       0x2c ../../pic32/compiler/pic32-tools/bin/../lib/gcc/pic32mx/4.5.2/../../../../pic32mx/lib\libmchp_peripheral_32MX250F128B.a(dma_chn_write_event_control_flags_lib.o)
 .text          0x00000000        0x0 ../../pic32/compiler/pic32-tools/bin/../lib/gcc/pic32mx/4.5.2/../../../../pic32mx/lib\libmchp_peripheral_32MX250F128B.a(dma_chn_set_txfer_lib.o)
 .data          0x00000000        0x0 ../../pic32/compiler/pic32-tools/bin/../lib/gcc/pic32mx/4.5.2/../../../../pic32mx/lib\libmchp_peripheral_32MX250F128B.a(dma_chn_set_txfer_lib.o)
 .bss           0x00000000        0x0 ../../pic32/compiler/pic32-tools/bin/../lib/gcc/pic32mx/4.5.2/../../../../pic32mx/lib\libmchp_peripheral_32MX250F128B.a(dma_chn_set_txfer_lib.o)
 .reginfo       0x00000000       0x18 ../../pic32/compiler/pic32-tools/bin/../lib/gcc/pic32mx/4.5.2/../../../../pic32mx/lib\libmchp_peripheral_32MX250F128B.a(dma_chn_set_txfer_lib.o)
 .pdr           0x00000000       0x20 ../../pic32/compiler/pic32-tools/bin/../lib/gcc/pic32mx/4.5.2/../../../../pic32mx/lib\libmchp_peripheral_32MX250F128B.a(dma_chn_set_txfer_lib.o)
 .text.DmaChnSetTxfer
                0x00000000       0x98 ../../pic32/compiler/pic32-tools/bin/../lib/gcc/pic32mx/4.5.2/../../../../pic32mx/lib\libmchp_peripheral_32MX250F128B.a(dma_chn_set_txfer_lib.o)
 .text          0x00000000        0x0 ../../pic32/compiler/pic32-tools/bin/../lib/gcc/pic32mx/4.5.2/../../../../pic32mx/lib\libmchp_peripheral_32MX250F128B.a(dma_chn_start_txfer_lib.o)
 .data          0x00000000        0x0 ../../pic32/compiler/pic32-tools/bin/../lib/gcc/pic32mx/4.5.2/../../../../pic32mx/lib\libmchp_peripheral_32MX250F128B.a(dma_chn_start_txfer_lib.o)
 .bss           0x00000000        0x0 ../../pic32/compiler/pic32-tools/bin/../lib/gcc/pic32mx/4.5.2/../../../../pic32mx/lib\libmchp_peripheral_32MX250F128B.a(dma_chn_start_txfer_lib.o)
 .reginfo       0x00000000       0x18 ../../pic32/compiler/pic32-tools/bin/../lib/gcc/pic32mx/4.5.2/../../../../pic32mx/lib\libmchp_peripheral_32MX250F128B.a(dma_chn_start_txfer_lib.o)
 .pdr           0x00000000       0x20 ../../pic32/compiler/pic32-tools/bin/../lib/gcc/pic32mx/4.5.2/../../../../pic32mx/lib\libmchp_peripheral_32MX250F128B.a(dma_chn_start_txfer_lib.o)
 .text.DmaChnStartTxfer
                0x00000000      0x124 ../../pic32/compiler/pic32-tools/bin/../lib/gcc/pic32mx/4.5.2/../../../../pic32mx/lib\libmchp_peripheral_32MX250F128B.a(dma_chn_start_txfer_lib.o)
 .text          0x00000000        0x0 ../../pic32/compiler/pic32-tools/bin/../lib/gcc/pic32mx/4.5.2/../../../../pic32mx/lib\libmchp_peripheral_32MX250F128B.a(dma_reg_map_tbl_lib.o)
 .data          0x00000000        0x0 ../../pic32/compiler/pic32-tools/bin/../lib/gcc/pic32mx/4.5.2/../../../../pic32mx/lib\libmchp_peripheral_32MX250F128B.a(dma_reg_map_tbl_lib.o)
 .bss           0x00000000        0x0 ../../pic32/compiler/pic32-tools/bin/../lib/gcc/pic32mx/4.5.2/../../../../pic32mx/lib\libmchp_peripheral_32MX250F128B.a(dma_reg_map_tbl_lib.o)
 .reginfo       0x00000000       0x18 ../../pic32/compiler/pic32-tools/bin/../lib/gcc/pic32mx/4.5.2/../../../../pic32mx/lib\libmchp_peripheral_32MX250F128B.a(dma_reg_map_tbl_lib.o)
 .pdr           0x00000000        0x0 ../../pic32/compiler/pic32-tools/bin/../lib/gcc/pic32mx/4.5.2/../../../../pic32mx/lib\libmchp_peripheral_32MX250F128B.a(dma_reg_map_tbl_lib.o)
 .rodata        0x00000000        0x4 ../../pic32/compiler/pic32-tools/bin/../lib/gcc/pic32mx/4.5.2/../../../../pic32mx/lib\libmchp_peripheral_32MX250F128B.a(dma_reg_map_tbl_lib.o)
 .text          0x00000000        0x0 ../../pic32/compiler/pic32-tools/bin/../lib/gcc/pic32mx/4.5.2/../../../../pic32mx/lib\libmchp_peripheral_32MX250F128B.a(int_tbl_lib.o)
 .data          0x00000000        0x0 ../../pic32/compiler/pic32-tools/bin/../lib/gcc/pic32mx/4.5.2/../../../../pic32mx/lib\libmchp_peripheral_32MX250F128B.a(int_tbl_lib.o)
 .bss           0x00000000        0x0 ../../pic32/compiler/pic32-tools/bin/../lib/gcc/pic32mx/4.5.2/../../../../pic32mx/lib\libmchp_peripheral_32MX250F128B.a(int_tbl_lib.o)
 .reginfo       0x00000000       0x18 ../../pic32/compiler/pic32-tools/bin/../lib/gcc/pic32mx/4.5.2/../../../../pic32mx/lib\libmchp_peripheral_32MX250F128B.a(int_tbl_lib.o)
 .pdr           0x00000000      0x120 ../../pic32/compiler/pic32-tools/bin/../lib/gcc/pic32mx/4.5.2/../../../../pic32mx/lib\libmchp_peripheral_32MX250F128B.a(int_tbl_lib.o)
 .text.INTClearFlag
                0x00000000       0x28 ../../pic32/compiler/pic32-tools/bin/../lib/gcc/pic32mx/4.5.2/../../../../pic32mx/lib\libmchp_peripheral_32MX250F128B.a(int_tbl_lib.o)
 .text.INTSetFlag
                0x00000000       0x28 ../../pic32/compiler/pic32-tools/bin/../lib/gcc/pic32mx/4.5.2/../../../../pic32mx/lib\libmchp_peripheral_32MX250F128B.a(int_tbl_lib.o)
 .text.INTGetFlag
                0x00000000       0x28 ../../pic32/compiler/pic32-tools/bin/../lib/gcc/pic32mx/4.5.2/../../../../pic32mx/lib\libmchp_peripheral_32MX250F128B.a(int_tbl_lib.o)
 .text.INTEnable
                0x00000000       0x50 ../../pic32/compiler/pic32-tools/bin/../lib/gcc/pic32mx/4.5.2/../../../../pic32mx/lib\libmchp_peripheral_32MX250F128B.a(int_tbl_lib.o)
 .text.INTGetEnable
                0x00000000       0x28 ../../pic32/compiler/pic32-tools/bin/../lib/gcc/pic32mx/4.5.2/../../../../pic32mx/lib\libmchp_peripheral_32MX250F128B.a(int_tbl_lib.o)
 .text.INTSetVectorPriority
                0x00000000       0x38 ../../pic32/compiler/pic32-tools/bin/../lib/gcc/pic32mx/4.5.2/../../../../pic32mx/lib\libmchp_peripheral_32MX250F128B.a(int_tbl_lib.o)
 .text.INTGetVectorPriority
                0x00000000       0x2c ../../pic32/compiler/pic32-tools/bin/../lib/gcc/pic32mx/4.5.2/../../../../pic32mx/lib\libmchp_peripheral_32MX250F128B.a(int_tbl_lib.o)
 .text.INTSetVectorSubPriority
                0x00000000       0x38 ../../pic32/compiler/pic32-tools/bin/../lib/gcc/pic32mx/4.5.2/../../../../pic32mx/lib\libmchp_peripheral_32MX250F128B.a(int_tbl_lib.o)
 .text.INTGetVectorSubPriority
                0x00000000       0x2c ../../pic32/compiler/pic32-tools/bin/../lib/gcc/pic32mx/4.5.2/../../../../pic32mx/lib\libmchp_peripheral_32MX250F128B.a(int_tbl_lib.o)
 .rodata        0x00000000      0x558 ../../pic32/compiler/pic32-tools/bin/../lib/gcc/pic32mx/4.5.2/../../../../pic32mx/lib\libmchp_peripheral_32MX250F128B.a(int_tbl_lib.o)
 .text          0x00000000        0x0 ../../pic32/compiler/pic32-tools/bin/../lib/gcc/pic32mx/4.5.2/../../../../pic32mx/lib\libc.a(lib_a-errno.o)
 .data          0x00000000        0x0 ../../pic32/compiler/pic32-tools/bin/../lib/gcc/pic32mx/4.5.2/../../../../pic32mx/lib\libc.a(lib_a-errno.o)
 .bss           0x00000000        0x0 ../../pic32/compiler/pic32-tools/bin/../lib/gcc/pic32mx/4.5.2/../../../../pic32mx/lib\libc.a(lib_a-errno.o)
 .reginfo       0x00000000       0x18 ../../pic32/compiler/pic32-tools/bin/../lib/gcc/pic32mx/4.5.2/../../../../pic32mx/lib\libc.a(lib_a-errno.o)
 .text          0x00000000        0x0 ../../pic32/compiler/pic32-tools/bin/../lib/gcc/pic32mx/4.5.2/../../../../pic32mx/lib\debug-exception-return.o
 .data          0x00000000        0x0 ../../pic32/compiler/pic32-tools/bin/../lib/gcc/pic32mx/4.5.2/../../../../pic32mx/lib\debug-exception-return.o
 .bss           0x00000000        0x0 ../../pic32/compiler/pic32-tools/bin/../lib/gcc/pic32mx/4.5.2/../../../../pic32mx/lib\debug-exception-return.o
 .reginfo       0x00000000       0x18 ../../pic32/compiler/pic32-tools/bin/../lib/gcc/pic32mx/4.5.2/../../../../pic32mx/lib\debug-exception-return.o

Memory Configuration

Name             Origin             Length             Attributes
kseg0_program_mem 0x9d007490         0x00038b70         xr
exception_mem    0x9d006000         0x00001000
debug_exec_mem   0x9fc00490         0x00000760
kseg0_boot_mem   0x9d006000         0x00000000
kseg1_boot_mem   0x9d007000         0x00000490
config3          0xbfc00bf0         0x00000004
config2          0xbfc00bf4         0x00000004
config1          0xbfc00bf8         0x00000004
config0          0xbfc00bfc         0x00000004
kseg1_data_mem   0xa0000000         0x00010000         w !x
sfrs             0xbf800000         0x00100000
configsfrs       0xbfc00bf0         0x00000010
*default*        0x00000000         0xffffffff

Linker script and memory map

                0x00000200                _min_heap_size = 0x200
LOAD obj/ff.o
LOAD obj/mmc_xmega.o
LOAD obj/graphicdraw.o
LOAD obj/graphiclib.o
LOAD obj/matrix4.o
LOAD obj/maze.o
LOAD obj/newmain.o
LOAD obj/triangle.o
LOAD obj/vector2.o
LOAD obj/vector3.o
LOAD obj/crti.o
LOAD obj/crtn.o
LOAD obj/crt0.o
LOAD ../../pic32/compiler/pic32-tools/bin/../lib/gcc/pic32mx/4.5.2/crtbegin.o
LOAD ../../pic32/compiler/pic32-tools/bin/../lib/gcc/pic32mx/4.5.2/crtend.o
LOAD ../../pic32/compiler/pic32-tools/bin/../lib/gcc/pic32mx/4.5.2/../../../../pic32mx/lib\libsupc++.a
LOAD ../../pic32/compiler/pic32-tools/bin/../lib/gcc/pic32mx/4.5.2/../../../../pic32mx/lib\libm.a
LOAD ../../pic32/compiler/pic32-tools/bin/../lib/gcc/pic32mx/4.5.2/../../../../pic32mx/lib/./proc/32MX250F128B\default_isr_vectors.o
                0x00000400                PROVIDE (_min_stack_size, 0x400)
LOAD ../../pic32/compiler/pic32-tools/bin/../lib/gcc/pic32mx/4.5.2/../../../../pic32mx/lib/./proc/32MX250F128B\processor.o
                0x00000001                PROVIDE (_vector_spacing, 0x1)
                0x9d006000                _ebase_address = 0x9d006000
                0x9d007000                _RESET_ADDR = 0x9d007000
                0x9d007380                _BEV_EXCPT_ADDR = 0x9d007380
                0x9d007480                _DBG_EXCPT_ADDR = 0x9d007480
                0x9fc00490                _DBG_CODE_ADDR = 0x9fc00490
                0x00000760                _DBG_CODE_SIZE = 0x760
                0x9d006180                _GEN_EXCPT_ADDR = (_ebase_address + 0x180)

.config_BFC00BF0
 *(.config_BFC00BF0)

.config_BFC00BF4
 *(.config_BFC00BF4)

.config_BFC00BF8
 *(.config_BFC00BF8)

.config_BFC00BFC
 *(.config_BFC00BFC)

.reset          0x9d007000        0x8
 *(.reset)
 .reset         0x9d007000        0x8 obj/crt0.o
                0x9d007000                _reset
 *(.reset.startup)
 .reset.startup
                0x9d007008        0x0 obj/crt0.o

.bev_excpt      0x9d007380       0x10
 *(.bev_handler)
 .bev_handler   0x9d007380       0x10 obj/crt0.o

.dbg_excpt      0x9d007480        0x0
                0x9d007480                . = (. + DEFINED (_DEBUGGER)?0x8:0x0)

.dbg_code       0x9fc00490        0x0
                0x9fc00490                . = (. + DEFINED (_DEBUGGER)?_DBG_CODE_SIZE:0x0)

.app_excpt      0x9d006180       0x10
 *(.gen_handler)
 .gen_handler   0x9d006180       0x10 obj/crt0.o

.vector_0       0x9d006200        0x8
 *(.vector_0)
 .vector_0      0x9d006200        0x8 ../../pic32/compiler/pic32-tools/bin/../lib/gcc/pic32mx/4.5.2/../../../../pic32mx/lib\libpic32.a(vector0.o)
                0x9d006200                __vector_dispatch_0
                0x00000001                ASSERT (((_vector_spacing == 0x0) || (SIZEOF (.vector_0) <= (_vector_spacing << 0x5))), function at exception vector 0 too large)

.vector_1       0x9d006220        0x8
 *(.vector_1)
 .vector_1      0x9d006220        0x8 ../../pic32/compiler/pic32-tools/bin/../lib/gcc/pic32mx/4.5.2/../../../../pic32mx/lib\libpic32.a(vector1.o)
                0x9d006220                __vector_dispatch_1
                0x00000001                ASSERT (((_vector_spacing == 0x0) || (SIZEOF (.vector_1) <= (_vector_spacing << 0x5))), function at exception vector 1 too large)

.vector_2       0x9d006240        0x8
 *(.vector_2)
 .vector_2      0x9d006240        0x8 ../../pic32/compiler/pic32-tools/bin/../lib/gcc/pic32mx/4.5.2/../../../../pic32mx/lib\libpic32.a(vector2.o)
                0x9d006240                __vector_dispatch_2
                0x00000001                ASSERT (((_vector_spacing == 0x0) || (SIZEOF (.vector_2) <= (_vector_spacing << 0x5))), function at exception vector 2 too large)

.vector_3       0x9d006260        0x8
 *(.vector_3)
 .vector_3      0x9d006260        0x8 ../../pic32/compiler/pic32-tools/bin/../lib/gcc/pic32mx/4.5.2/../../../../pic32mx/lib\libpic32.a(vector3.o)
                0x9d006260                __vector_dispatch_3
                0x00000001                ASSERT (((_vector_spacing == 0x0) || (SIZEOF (.vector_3) <= (_vector_spacing << 0x5))), function at exception vector 3 too large)

.vector_4       0x9d006280        0x8
 *(.vector_4)
 .vector_4      0x9d006280        0x8 ../../pic32/compiler/pic32-tools/bin/../lib/gcc/pic32mx/4.5.2/../../../../pic32mx/lib\libpic32.a(vector4.o)
                0x9d006280                __vector_dispatch_4
                0x00000001                ASSERT (((_vector_spacing == 0x0) || (SIZEOF (.vector_4) <= (_vector_spacing << 0x5))), function at exception vector 4 too large)

.vector_5       0x9d0062a0        0x8
 *(.vector_5)
 .vector_5      0x9d0062a0        0x8 ../../pic32/compiler/pic32-tools/bin/../lib/gcc/pic32mx/4.5.2/../../../../pic32mx/lib\libpic32.a(vector5.o)
                0x9d0062a0                __vector_dispatch_5
                0x00000001                ASSERT (((_vector_spacing == 0x0) || (SIZEOF (.vector_5) <= (_vector_spacing << 0x5))), function at exception vector 5 too large)

.vector_6       0x9d0062c0        0x8
 *(.vector_6)
 .vector_6      0x9d0062c0        0x8 ../../pic32/compiler/pic32-tools/bin/../lib/gcc/pic32mx/4.5.2/../../../../pic32mx/lib\libpic32.a(vector6.o)
                0x9d0062c0                __vector_dispatch_6
                0x00000001                ASSERT (((_vector_spacing == 0x0) || (SIZEOF (.vector_6) <= (_vector_spacing << 0x5))), function at exception vector 6 too large)

.vector_7       0x9d0062e0        0x8
 *(.vector_7)
 .vector_7      0x9d0062e0        0x8 ../../pic32/compiler/pic32-tools/bin/../lib/gcc/pic32mx/4.5.2/../../../../pic32mx/lib\libpic32.a(vector7.o)
                0x9d0062e0                __vector_dispatch_7
                0x00000001                ASSERT (((_vector_spacing == 0x0) || (SIZEOF (.vector_7) <= (_vector_spacing << 0x5))), function at exception vector 7 too large)

.vector_8       0x9d006300        0x8
 *(.vector_8)
 .vector_8      0x9d006300        0x8 ../../pic32/compiler/pic32-tools/bin/../lib/gcc/pic32mx/4.5.2/../../../../pic32mx/lib\libpic32.a(vector8.o)
                0x9d006300                __vector_dispatch_8
                0x00000001                ASSERT (((_vector_spacing == 0x0) || (SIZEOF (.vector_8) <= (_vector_spacing << 0x5))), function at exception vector 8 too large)

.vector_9       0x9d006320        0x8
 *(.vector_9)
 .vector_9      0x9d006320        0x8 ../../pic32/compiler/pic32-tools/bin/../lib/gcc/pic32mx/4.5.2/../../../../pic32mx/lib\libpic32.a(vector9.o)
                0x9d006320                __vector_dispatch_9
                0x00000001                ASSERT (((_vector_spacing == 0x0) || (SIZEOF (.vector_9) <= (_vector_spacing << 0x5))), function at exception vector 9 too large)

.vector_10      0x9d006340        0x8
 *(.vector_10)
 .vector_10     0x9d006340        0x8 ../../pic32/compiler/pic32-tools/bin/../lib/gcc/pic32mx/4.5.2/../../../../pic32mx/lib\libpic32.a(vector10.o)
                0x9d006340                __vector_dispatch_10
                0x00000001                ASSERT (((_vector_spacing == 0x0) || (SIZEOF (.vector_10) <= (_vector_spacing << 0x5))), function at exception vector 10 too large)

.vector_11      0x9d006360        0x8
 *(.vector_11)
 .vector_11     0x9d006360        0x8 ../../pic32/compiler/pic32-tools/bin/../lib/gcc/pic32mx/4.5.2/../../../../pic32mx/lib\libpic32.a(vector11.o)
                0x9d006360                __vector_dispatch_11
                0x00000001                ASSERT (((_vector_spacing == 0x0) || (SIZEOF (.vector_11) <= (_vector_spacing << 0x5))), function at exception vector 11 too large)

.vector_12      0x9d006380        0x8
 *(.vector_12)
 .vector_12     0x9d006380        0x8 ../../pic32/compiler/pic32-tools/bin/../lib/gcc/pic32mx/4.5.2/../../../../pic32mx/lib\libpic32.a(vector12.o)
                0x9d006380                __vector_dispatch_12
                0x00000001                ASSERT (((_vector_spacing == 0x0) || (SIZEOF (.vector_12) <= (_vector_spacing << 0x5))), function at exception vector 12 too large)

.vector_13      0x9d0063a0        0x8
 *(.vector_13)
 .vector_13     0x9d0063a0        0x8 ../../pic32/compiler/pic32-tools/bin/../lib/gcc/pic32mx/4.5.2/../../../../pic32mx/lib\libpic32.a(vector13.o)
                0x9d0063a0                __vector_dispatch_13
                0x00000001                ASSERT (((_vector_spacing == 0x0) || (SIZEOF (.vector_13) <= (_vector_spacing << 0x5))), function at exception vector 13 too large)

.vector_14      0x9d0063c0        0x8
 *(.vector_14)
 .vector_14     0x9d0063c0        0x8 ../../pic32/compiler/pic32-tools/bin/../lib/gcc/pic32mx/4.5.2/../../../../pic32mx/lib\libpic32.a(vector14.o)
                0x9d0063c0                __vector_dispatch_14
                0x00000001                ASSERT (((_vector_spacing == 0x0) || (SIZEOF (.vector_14) <= (_vector_spacing << 0x5))), function at exception vector 14 too large)

.vector_15      0x9d0063e0        0x8
 *(.vector_15)
 .vector_15     0x9d0063e0        0x8 ../../pic32/compiler/pic32-tools/bin/../lib/gcc/pic32mx/4.5.2/../../../../pic32mx/lib\libpic32.a(vector15.o)
                0x9d0063e0                __vector_dispatch_15
                0x00000001                ASSERT (((_vector_spacing == 0x0) || (SIZEOF (.vector_15) <= (_vector_spacing << 0x5))), function at exception vector 15 too large)

.vector_16      0x9d006400        0x8
 *(.vector_16)
 .vector_16     0x9d006400        0x8 ../../pic32/compiler/pic32-tools/bin/../lib/gcc/pic32mx/4.5.2/../../../../pic32mx/lib\libpic32.a(vector16.o)
                0x9d006400                __vector_dispatch_16
                0x00000001                ASSERT (((_vector_spacing == 0x0) || (SIZEOF (.vector_16) <= (_vector_spacing << 0x5))), function at exception vector 16 too large)

.vector_17      0x9d006420        0x8
 *(.vector_17)
 .vector_17     0x9d006420        0x8 ../../pic32/compiler/pic32-tools/bin/../lib/gcc/pic32mx/4.5.2/../../../../pic32mx/lib\libpic32.a(vector17.o)
                0x9d006420                __vector_dispatch_17
                0x00000001                ASSERT (((_vector_spacing == 0x0) || (SIZEOF (.vector_17) <= (_vector_spacing << 0x5))), function at exception vector 17 too large)

.vector_18      0x9d006440        0x8
 *(.vector_18)
 .vector_18     0x9d006440        0x8 ../../pic32/compiler/pic32-tools/bin/../lib/gcc/pic32mx/4.5.2/../../../../pic32mx/lib\libpic32.a(vector18.o)
                0x9d006440                __vector_dispatch_18
                0x00000001                ASSERT (((_vector_spacing == 0x0) || (SIZEOF (.vector_18) <= (_vector_spacing << 0x5))), function at exception vector 18 too large)

.vector_19      0x9d006460        0x8
 *(.vector_19)
 .vector_19     0x9d006460        0x8 ../../pic32/compiler/pic32-tools/bin/../lib/gcc/pic32mx/4.5.2/../../../../pic32mx/lib\libpic32.a(vector19.o)
                0x9d006460                __vector_dispatch_19
                0x00000001                ASSERT (((_vector_spacing == 0x0) || (SIZEOF (.vector_19) <= (_vector_spacing << 0x5))), function at exception vector 19 too large)

.vector_20      0x9d006480        0x8
 *(.vector_20)
 .vector_20     0x9d006480        0x8 ../../pic32/compiler/pic32-tools/bin/../lib/gcc/pic32mx/4.5.2/../../../../pic32mx/lib\libpic32.a(vector20.o)
                0x9d006480                __vector_dispatch_20
                0x00000001                ASSERT (((_vector_spacing == 0x0) || (SIZEOF (.vector_20) <= (_vector_spacing << 0x5))), function at exception vector 20 too large)

.vector_21      0x9d0064a0        0x8
 *(.vector_21)
 .vector_21     0x9d0064a0        0x8 ../../pic32/compiler/pic32-tools/bin/../lib/gcc/pic32mx/4.5.2/../../../../pic32mx/lib\libpic32.a(vector21.o)
                0x9d0064a0                __vector_dispatch_21
                0x00000001                ASSERT (((_vector_spacing == 0x0) || (SIZEOF (.vector_21) <= (_vector_spacing << 0x5))), function at exception vector 21 too large)

.vector_22      0x9d0064c0        0x8
 *(.vector_22)
 .vector_22     0x9d0064c0        0x8 ../../pic32/compiler/pic32-tools/bin/../lib/gcc/pic32mx/4.5.2/../../../../pic32mx/lib\libpic32.a(vector22.o)
                0x9d0064c0                __vector_dispatch_22
                0x00000001                ASSERT (((_vector_spacing == 0x0) || (SIZEOF (.vector_22) <= (_vector_spacing << 0x5))), function at exception vector 22 too large)

.vector_23      0x9d0064e0        0x8
 *(.vector_23)
 .vector_23     0x9d0064e0        0x8 ../../pic32/compiler/pic32-tools/bin/../lib/gcc/pic32mx/4.5.2/../../../../pic32mx/lib\libpic32.a(vector23.o)
                0x9d0064e0                __vector_dispatch_23
                0x00000001                ASSERT (((_vector_spacing == 0x0) || (SIZEOF (.vector_23) <= (_vector_spacing << 0x5))), function at exception vector 23 too large)

.vector_24      0x9d006500        0x8
 *(.vector_24)
 .vector_24     0x9d006500        0x8 ../../pic32/compiler/pic32-tools/bin/../lib/gcc/pic32mx/4.5.2/../../../../pic32mx/lib\libpic32.a(vector24.o)
                0x9d006500                __vector_dispatch_24
                0x00000001                ASSERT (((_vector_spacing == 0x0) || (SIZEOF (.vector_24) <= (_vector_spacing << 0x5))), function at exception vector 24 too large)

.vector_25      0x9d006520        0x8
 *(.vector_25)
 .vector_25     0x9d006520        0x8 ../../pic32/compiler/pic32-tools/bin/../lib/gcc/pic32mx/4.5.2/../../../../pic32mx/lib\libpic32.a(vector25.o)
                0x9d006520                __vector_dispatch_25
                0x00000001                ASSERT (((_vector_spacing == 0x0) || (SIZEOF (.vector_25) <= (_vector_spacing << 0x5))), function at exception vector 25 too large)

.vector_26      0x9d006540        0x8
 *(.vector_26)
 .vector_26     0x9d006540        0x8 ../../pic32/compiler/pic32-tools/bin/../lib/gcc/pic32mx/4.5.2/../../../../pic32mx/lib\libpic32.a(vector26.o)
                0x9d006540                __vector_dispatch_26
                0x00000001                ASSERT (((_vector_spacing == 0x0) || (SIZEOF (.vector_26) <= (_vector_spacing << 0x5))), function at exception vector 26 too large)

.vector_27      0x9d006560        0x8
 *(.vector_27)
 .vector_27     0x9d006560        0x8 ../../pic32/compiler/pic32-tools/bin/../lib/gcc/pic32mx/4.5.2/../../../../pic32mx/lib\libpic32.a(vector27.o)
                0x9d006560                __vector_dispatch_27
                0x00000001                ASSERT (((_vector_spacing == 0x0) || (SIZEOF (.vector_27) <= (_vector_spacing << 0x5))), function at exception vector 27 too large)

.vector_28      0x9d006580        0x8
 *(.vector_28)
 .vector_28     0x9d006580        0x8 ../../pic32/compiler/pic32-tools/bin/../lib/gcc/pic32mx/4.5.2/../../../../pic32mx/lib\libpic32.a(vector28.o)
                0x9d006580                __vector_dispatch_28
                0x00000001                ASSERT (((_vector_spacing == 0x0) || (SIZEOF (.vector_28) <= (_vector_spacing << 0x5))), function at exception vector 28 too large)

.vector_29      0x9d0065a0        0x8
 *(.vector_29)
 .vector_29     0x9d0065a0        0x8 ../../pic32/compiler/pic32-tools/bin/../lib/gcc/pic32mx/4.5.2/../../../../pic32mx/lib\libpic32.a(vector29.o)
                0x9d0065a0                __vector_dispatch_29
                0x00000001                ASSERT (((_vector_spacing == 0x0) || (SIZEOF (.vector_29) <= (_vector_spacing << 0x5))), function at exception vector 29 too large)

.vector_30      0x9d0065c0        0x8
 *(.vector_30)
 .vector_30     0x9d0065c0        0x8 ../../pic32/compiler/pic32-tools/bin/../lib/gcc/pic32mx/4.5.2/../../../../pic32mx/lib\libpic32.a(vector30.o)
                0x9d0065c0                __vector_dispatch_30
                0x00000001                ASSERT (((_vector_spacing == 0x0) || (SIZEOF (.vector_30) <= (_vector_spacing << 0x5))), function at exception vector 30 too large)

.vector_31      0x9d0065e0        0x8
 *(.vector_31)
 .vector_31     0x9d0065e0        0x8 ../../pic32/compiler/pic32-tools/bin/../lib/gcc/pic32mx/4.5.2/../../../../pic32mx/lib\libpic32.a(vector31.o)
                0x9d0065e0                __vector_dispatch_31
                0x00000001                ASSERT (((_vector_spacing == 0x0) || (SIZEOF (.vector_31) <= (_vector_spacing << 0x5))), function at exception vector 31 too large)

.vector_32      0x9d006600        0x8
 *(.vector_32)
 .vector_32     0x9d006600        0x8 ../../pic32/compiler/pic32-tools/bin/../lib/gcc/pic32mx/4.5.2/../../../../pic32mx/lib\libpic32.a(vector32.o)
                0x9d006600                __vector_dispatch_32
                0x00000001                ASSERT (((_vector_spacing == 0x0) || (SIZEOF (.vector_32) <= (_vector_spacing << 0x5))), function at exception vector 32 too large)

.vector_33      0x9d006620        0x8
 *(.vector_33)
 .vector_33     0x9d006620        0x8 ../../pic32/compiler/pic32-tools/bin/../lib/gcc/pic32mx/4.5.2/../../../../pic32mx/lib\libpic32.a(vector33.o)
                0x9d006620                __vector_dispatch_33
                0x00000001                ASSERT (((_vector_spacing == 0x0) || (SIZEOF (.vector_33) <= (_vector_spacing << 0x5))), function at exception vector 33 too large)

.vector_34      0x9d006640        0x8
 *(.vector_34)
 .vector_34     0x9d006640        0x8 ../../pic32/compiler/pic32-tools/bin/../lib/gcc/pic32mx/4.5.2/../../../../pic32mx/lib\libpic32.a(vector34.o)
                0x9d006640                __vector_dispatch_34
                0x00000001                ASSERT (((_vector_spacing == 0x0) || (SIZEOF (.vector_34) <= (_vector_spacing << 0x5))), function at exception vector 34 too large)

.vector_35      0x9d006660        0x8
 *(.vector_35)
 .vector_35     0x9d006660        0x8 ../../pic32/compiler/pic32-tools/bin/../lib/gcc/pic32mx/4.5.2/../../../../pic32mx/lib\libpic32.a(vector35.o)
                0x9d006660                __vector_dispatch_35
                0x00000001                ASSERT (((_vector_spacing == 0x0) || (SIZEOF (.vector_35) <= (_vector_spacing << 0x5))), function at exception vector 35 too large)

.vector_36      0x9d006680        0x8
 *(.vector_36)
 .vector_36     0x9d006680        0x8 ../../pic32/compiler/pic32-tools/bin/../lib/gcc/pic32mx/4.5.2/../../../../pic32mx/lib\libpic32.a(vector36.o)
                0x9d006680                __vector_dispatch_36
                0x00000001                ASSERT (((_vector_spacing == 0x0) || (SIZEOF (.vector_36) <= (_vector_spacing << 0x5))), function at exception vector 36 too large)

.vector_37      0x9d0066a0        0x8
 *(.vector_37)
 .vector_37     0x9d0066a0        0x8 ../../pic32/compiler/pic32-tools/bin/../lib/gcc/pic32mx/4.5.2/../../../../pic32mx/lib\libpic32.a(vector37.o)
                0x9d0066a0                __vector_dispatch_37
                0x00000001                ASSERT (((_vector_spacing == 0x0) || (SIZEOF (.vector_37) <= (_vector_spacing << 0x5))), function at exception vector 37 too large)

.vector_38      0x9d0066c0        0x8
 *(.vector_38)
 .vector_38     0x9d0066c0        0x8 ../../pic32/compiler/pic32-tools/bin/../lib/gcc/pic32mx/4.5.2/../../../../pic32mx/lib\libpic32.a(vector38.o)
                0x9d0066c0                __vector_dispatch_38
                0x00000001                ASSERT (((_vector_spacing == 0x0) || (SIZEOF (.vector_38) <= (_vector_spacing << 0x5))), function at exception vector 38 too large)

.vector_39      0x9d0066e0        0x8
 *(.vector_39)
 .vector_39     0x9d0066e0        0x8 ../../pic32/compiler/pic32-tools/bin/../lib/gcc/pic32mx/4.5.2/../../../../pic32mx/lib\libpic32.a(vector39.o)
                0x9d0066e0                __vector_dispatch_39
                0x00000001                ASSERT (((_vector_spacing == 0x0) || (SIZEOF (.vector_39) <= (_vector_spacing << 0x5))), function at exception vector 39 too large)

.vector_40      0x9d006700        0x8
 *(.vector_40)
 .vector_40     0x9d006700        0x8 ../../pic32/compiler/pic32-tools/bin/../lib/gcc/pic32mx/4.5.2/../../../../pic32mx/lib\libpic32.a(vector40.o)
                0x9d006700                __vector_dispatch_40
                0x00000001                ASSERT (((_vector_spacing == 0x0) || (SIZEOF (.vector_40) <= (_vector_spacing << 0x5))), function at exception vector 40 too large)

.vector_41      0x9d006720        0x8
 *(.vector_41)
 .vector_41     0x9d006720        0x8 ../../pic32/compiler/pic32-tools/bin/../lib/gcc/pic32mx/4.5.2/../../../../pic32mx/lib\libpic32.a(vector41.o)
                0x9d006720                __vector_dispatch_41
                0x00000001                ASSERT (((_vector_spacing == 0x0) || (SIZEOF (.vector_41) <= (_vector_spacing << 0x5))), function at exception vector 41 too large)

.vector_42      0x9d006740        0x8
 *(.vector_42)
 .vector_42     0x9d006740        0x8 ../../pic32/compiler/pic32-tools/bin/../lib/gcc/pic32mx/4.5.2/../../../../pic32mx/lib\libpic32.a(vector42.o)
                0x9d006740                __vector_dispatch_42
                0x00000001                ASSERT (((_vector_spacing == 0x0) || (SIZEOF (.vector_42) <= (_vector_spacing << 0x5))), function at exception vector 42 too large)

.vector_43      0x9d006760        0x8
 *(.vector_43)
 .vector_43     0x9d006760        0x8 ../../pic32/compiler/pic32-tools/bin/../lib/gcc/pic32mx/4.5.2/../../../../pic32mx/lib\libpic32.a(vector43.o)
                0x9d006760                __vector_dispatch_43
                0x00000001                ASSERT (((_vector_spacing == 0x0) || (SIZEOF (.vector_43) <= (_vector_spacing << 0x5))), function at exception vector 43 too large)

.vector_44      0x9d006780        0x8
 *(.vector_44)
 .vector_44     0x9d006780        0x8 ../../pic32/compiler/pic32-tools/bin/../lib/gcc/pic32mx/4.5.2/../../../../pic32mx/lib\libpic32.a(vector44.o)
                0x9d006780                __vector_dispatch_44
                0x00000001                ASSERT (((_vector_spacing == 0x0) || (SIZEOF (.vector_44) <= (_vector_spacing << 0x5))), function at exception vector 44 too large)

.vector_45      0x9d0067a0        0x8
 *(.vector_45)
 .vector_45     0x9d0067a0        0x8 ../../pic32/compiler/pic32-tools/bin/../lib/gcc/pic32mx/4.5.2/../../../../pic32mx/lib\libpic32.a(vector45.o)
                0x9d0067a0                __vector_dispatch_45
                0x00000001                ASSERT (((_vector_spacing == 0x0) || (SIZEOF (.vector_45) <= (_vector_spacing << 0x5))), function at exception vector 45 too large)

.vector_46      0x9d0067c0        0x8
 *(.vector_46)
 .vector_46     0x9d0067c0        0x8 ../../pic32/compiler/pic32-tools/bin/../lib/gcc/pic32mx/4.5.2/../../../../pic32mx/lib\libpic32.a(vector46.o)
                0x9d0067c0                __vector_dispatch_46
                0x00000001                ASSERT (((_vector_spacing == 0x0) || (SIZEOF (.vector_46) <= (_vector_spacing << 0x5))), function at exception vector 46 too large)

.vector_47      0x9d0067e0        0x8
 *(.vector_47)
 .vector_47     0x9d0067e0        0x8 ../../pic32/compiler/pic32-tools/bin/../lib/gcc/pic32mx/4.5.2/../../../../pic32mx/lib\libpic32.a(vector47.o)
                0x9d0067e0                __vector_dispatch_47
                0x00000001                ASSERT (((_vector_spacing == 0x0) || (SIZEOF (.vector_47) <= (_vector_spacing << 0x5))), function at exception vector 47 too large)

.vector_48      0x9d006800        0x8
 *(.vector_48)
 .vector_48     0x9d006800        0x8 ../../pic32/compiler/pic32-tools/bin/../lib/gcc/pic32mx/4.5.2/../../../../pic32mx/lib\libpic32.a(vector48.o)
                0x9d006800                __vector_dispatch_48
                0x00000001                ASSERT (((_vector_spacing == 0x0) || (SIZEOF (.vector_48) <= (_vector_spacing << 0x5))), function at exception vector 48 too large)

.vector_49      0x9d006820        0x8
 *(.vector_49)
 .vector_49     0x9d006820        0x8 ../../pic32/compiler/pic32-tools/bin/../lib/gcc/pic32mx/4.5.2/../../../../pic32mx/lib\libpic32.a(vector49.o)
                0x9d006820                __vector_dispatch_49
                0x00000001                ASSERT (((_vector_spacing == 0x0) || (SIZEOF (.vector_49) <= (_vector_spacing << 0x5))), function at exception vector 49 too large)

.vector_50      0x9d006840        0x8
 *(.vector_50)
 .vector_50     0x9d006840        0x8 ../../pic32/compiler/pic32-tools/bin/../lib/gcc/pic32mx/4.5.2/../../../../pic32mx/lib\libpic32.a(vector50.o)
                0x9d006840                __vector_dispatch_50
                0x00000001                ASSERT (((_vector_spacing == 0x0) || (SIZEOF (.vector_50) <= (_vector_spacing << 0x5))), function at exception vector 50 too large)

.vector_51      0x9d006860        0x8
 *(.vector_51)
 .vector_51     0x9d006860        0x8 ../../pic32/compiler/pic32-tools/bin/../lib/gcc/pic32mx/4.5.2/../../../../pic32mx/lib\libpic32.a(vector51.o)
                0x9d006860                __vector_dispatch_51
                0x00000001                ASSERT (((_vector_spacing == 0x0) || (SIZEOF (.vector_51) <= (_vector_spacing << 0x5))), function at exception vector 51 too large)

.vector_52      0x9d006880        0x8
 *(.vector_52)
 .vector_52     0x9d006880        0x8 ../../pic32/compiler/pic32-tools/bin/../lib/gcc/pic32mx/4.5.2/../../../../pic32mx/lib\libpic32.a(vector52.o)
                0x9d006880                __vector_dispatch_52
                0x00000001                ASSERT (((_vector_spacing == 0x0) || (SIZEOF (.vector_52) <= (_vector_spacing << 0x5))), function at exception vector 52 too large)

.vector_53      0x9d0068a0        0x8
 *(.vector_53)
 .vector_53     0x9d0068a0        0x8 ../../pic32/compiler/pic32-tools/bin/../lib/gcc/pic32mx/4.5.2/../../../../pic32mx/lib\libpic32.a(vector53.o)
                0x9d0068a0                __vector_dispatch_53
                0x00000001                ASSERT (((_vector_spacing == 0x0) || (SIZEOF (.vector_53) <= (_vector_spacing << 0x5))), function at exception vector 53 too large)

.vector_54      0x9d0068c0        0x8
 *(.vector_54)
 .vector_54     0x9d0068c0        0x8 ../../pic32/compiler/pic32-tools/bin/../lib/gcc/pic32mx/4.5.2/../../../../pic32mx/lib\libpic32.a(vector54.o)
                0x9d0068c0                __vector_dispatch_54
                0x00000001                ASSERT (((_vector_spacing == 0x0) || (SIZEOF (.vector_54) <= (_vector_spacing << 0x5))), function at exception vector 54 too large)

.vector_55      0x9d0068e0        0x8
 *(.vector_55)
 .vector_55     0x9d0068e0        0x8 ../../pic32/compiler/pic32-tools/bin/../lib/gcc/pic32mx/4.5.2/../../../../pic32mx/lib\libpic32.a(vector55.o)
                0x9d0068e0                __vector_dispatch_55
                0x00000001                ASSERT (((_vector_spacing == 0x0) || (SIZEOF (.vector_55) <= (_vector_spacing << 0x5))), function at exception vector 55 too large)

.vector_56      0x9d006900        0x8
 *(.vector_56)
 .vector_56     0x9d006900        0x8 ../../pic32/compiler/pic32-tools/bin/../lib/gcc/pic32mx/4.5.2/../../../../pic32mx/lib\libpic32.a(vector56.o)
                0x9d006900                __vector_dispatch_56
                0x00000001                ASSERT (((_vector_spacing == 0x0) || (SIZEOF (.vector_56) <= (_vector_spacing << 0x5))), function at exception vector 56 too large)

.vector_57      0x9d006920        0x8
 *(.vector_57)
 .vector_57     0x9d006920        0x8 ../../pic32/compiler/pic32-tools/bin/../lib/gcc/pic32mx/4.5.2/../../../../pic32mx/lib\libpic32.a(vector57.o)
                0x9d006920                __vector_dispatch_57
                0x00000001                ASSERT (((_vector_spacing == 0x0) || (SIZEOF (.vector_57) <= (_vector_spacing << 0x5))), function at exception vector 57 too large)

.vector_58      0x9d006940        0x8
 *(.vector_58)
 .vector_58     0x9d006940        0x8 ../../pic32/compiler/pic32-tools/bin/../lib/gcc/pic32mx/4.5.2/../../../../pic32mx/lib\libpic32.a(vector58.o)
                0x9d006940                __vector_dispatch_58
                0x00000001                ASSERT (((_vector_spacing == 0x0) || (SIZEOF (.vector_58) <= (_vector_spacing << 0x5))), function at exception vector 58 too large)

.vector_59      0x9d006960        0x8
 *(.vector_59)
 .vector_59     0x9d006960        0x8 ../../pic32/compiler/pic32-tools/bin/../lib/gcc/pic32mx/4.5.2/../../../../pic32mx/lib\libpic32.a(vector59.o)
                0x9d006960                __vector_dispatch_59
                0x00000001                ASSERT (((_vector_spacing == 0x0) || (SIZEOF (.vector_59) <= (_vector_spacing << 0x5))), function at exception vector 59 too large)

.vector_60      0x9d006980        0x8
 *(.vector_60)
 .vector_60     0x9d006980        0x8 ../../pic32/compiler/pic32-tools/bin/../lib/gcc/pic32mx/4.5.2/../../../../pic32mx/lib\libpic32.a(vector60.o)
                0x9d006980                __vector_dispatch_60
                0x00000001                ASSERT (((_vector_spacing == 0x0) || (SIZEOF (.vector_60) <= (_vector_spacing << 0x5))), function at exception vector 60 too large)

.vector_61      0x9d0069a0        0x8
 *(.vector_61)
 .vector_61     0x9d0069a0        0x8 ../../pic32/compiler/pic32-tools/bin/../lib/gcc/pic32mx/4.5.2/../../../../pic32mx/lib\libpic32.a(vector61.o)
                0x9d0069a0                __vector_dispatch_61
                0x00000001                ASSERT (((_vector_spacing == 0x0) || (SIZEOF (.vector_61) <= (_vector_spacing << 0x5))), function at exception vector 61 too large)

.vector_62      0x9d0069c0        0x8
 *(.vector_62)
 .vector_62     0x9d0069c0        0x8 ../../pic32/compiler/pic32-tools/bin/../lib/gcc/pic32mx/4.5.2/../../../../pic32mx/lib\libpic32.a(vector62.o)
                0x9d0069c0                __vector_dispatch_62
                0x00000001                ASSERT (((_vector_spacing == 0x0) || (SIZEOF (.vector_62) <= (_vector_spacing << 0x5))), function at exception vector 62 too large)

.vector_63      0x9d0069e0        0x8
 *(.vector_63)
 .vector_63     0x9d0069e0        0x8 ../../pic32/compiler/pic32-tools/bin/../lib/gcc/pic32mx/4.5.2/../../../../pic32mx/lib\libpic32.a(vector63.o)
                0x9d0069e0                __vector_dispatch_63
                0x00000001                ASSERT (((_vector_spacing == 0x0) || (SIZEOF (.vector_63) <= (_vector_spacing << 0x5))), function at exception vector 63 too large)

.startup
 *(.startup)

.text           0x9d007490        0x0
 *(.stub .gnu.linkonce.t.*)
 *(.text.*personality*)
 *(.mips16.fn.*)
 *(.mips16.call.*)
 *(.gnu.warning)
                0x9d007490                . = ALIGN (0x4)

.init           0x9d007490       0x24
 *crti.o(.init)
 .init          0x9d007490        0x8 obj/crti.o
                0x9d007490                _init
 *crtbegin.o(.init)
 .init          0x9d007498        0x8 ../../pic32/compiler/pic32-tools/bin/../lib/gcc/pic32mx/4.5.2/crtbegin.o
 *(EXCLUDE_FILE(*crtn.o *crtend?.o *crtend.o) .init)
 *crtend.o(.init)
 .init          0x9d0074a0        0x8 ../../pic32/compiler/pic32-tools/bin/../lib/gcc/pic32mx/4.5.2/crtend.o
 *crtn.o(.init)
 .init          0x9d0074a8        0xc obj/crtn.o
                0x9d0074b4                . = ALIGN (0x4)

.fini           0x9d0074b4       0x1c
 *(.fini)
 .fini          0x9d0074b4        0x8 obj/crti.o
                0x9d0074b4                _fini
 .fini          0x9d0074bc        0xc obj/crtn.o
 .fini          0x9d0074c8        0x8 ../../pic32/compiler/pic32-tools/bin/../lib/gcc/pic32mx/4.5.2/crtbegin.o
                0x9d0074d0                . = ALIGN (0x4)

.preinit_array  0x9d0074d0        0x0
                0x9d0074d0                PROVIDE (__preinit_array_start, .)
 *(.preinit_array)
                0x9d0074d0                PROVIDE (__preinit_array_end, .)
                0x9d0074d0                . = ALIGN (0x4)

.init_array     0x9d0074d0        0x0
                0x9d0074d0                PROVIDE (__init_array_start, .)
 *(SORT(.init_array.*))
 *(.init_array)
                0x9d0074d0                PROVIDE (__init_array_end, .)
                0x9d0074d0                . = ALIGN (0x4)

.fini_array     0x9d0074d0        0x0
                0x9d0074d0                PROVIDE (__fini_array_start, .)
 *(SORT(.fini_array.*))
 *(.fini_array)
                0x9d0074d0                PROVIDE (__fini_array_end, .)
                0x9d0074d0                . = ALIGN (0x4)

.ctors          0x9d0074d0        0xc
 *crtbegin.o(.ctors)
 .ctors         0x9d0074d0        0x4 ../../pic32/compiler/pic32-tools/bin/../lib/gcc/pic32mx/4.5.2/crtbegin.o
 *crtbegin?.o(.ctors)
 *(EXCLUDE_FILE(*crtend?.o *crtend.o) .ctors)
 .ctors         0x9d0074d4        0x4 obj/newmain.o
 *(SORT(.ctors.*))
 *(.ctors)
 .ctors         0x9d0074d8        0x4 ../../pic32/compiler/pic32-tools/bin/../lib/gcc/pic32mx/4.5.2/crtend.o
                0x9d0074dc                . = ALIGN (0x4)

.dtors          0x9d0074dc        0x8
 *crtbegin.o(.dtors)
 .dtors         0x9d0074dc        0x4 ../../pic32/compiler/pic32-tools/bin/../lib/gcc/pic32mx/4.5.2/crtbegin.o
 *crtbegin?.o(.dtors)
 *(EXCLUDE_FILE(*crtend?.o *crtend.o) .dtors)
 *(SORT(.dtors.*))
 *(.dtors)
 .dtors         0x9d0074e0        0x4 ../../pic32/compiler/pic32-tools/bin/../lib/gcc/pic32mx/4.5.2/crtend.o
                0x9d0074e0                __DTOR_END__
                0x9d0074e4                . = ALIGN (0x4)

.rodata         0x9d0074e4        0x0
 *(.gnu.linkonce.r.*)
 *(.rodata1)
                0x9d0074e4                . = ALIGN (0x4)

.sdata2         0x9d0074e4        0x0
 *(.sdata2 .sdata2.* .gnu.linkonce.s2.*)
                0x9d0074e4                . = ALIGN (0x4)

.sbss2          0x9d0074e4        0x0
 *(.sbss2 .sbss2.* .gnu.linkonce.sb2.*)
                0x9d0074e4                . = ALIGN (0x4)

.eh_frame_hdr
 *(.eh_frame_hdr)
                0x9d0074e4                . = ALIGN (0x4)

.eh_frame
 *(.eh_frame)
                0x9d0074e4                . = ALIGN (0x4)

.gcc_except_table
 *(.gcc_except_table .gcc_except_table.*)
                0x9d0074e4                . = ALIGN (0x4)

.dbg_data       0xa0000000        0x0
                0xa0000000                . = (. + DEFINED (_DEBUGGER)?0x200:0x0)

.jcr            0xa0000000        0x4
 *(.jcr)
 .jcr           0xa0000000        0x0 ../../pic32/compiler/pic32-tools/bin/../lib/gcc/pic32mx/4.5.2/crtbegin.o
 .jcr           0xa0000000        0x4 ../../pic32/compiler/pic32-tools/bin/../lib/gcc/pic32mx/4.5.2/crtend.o
                0xa0000004                . = ALIGN (0x4)

.eh_frame       0xa0000004       0x54
 *(.eh_frame)
 .eh_frame      0xa0000004        0x0 ../../pic32/compiler/pic32-tools/bin/../lib/gcc/pic32mx/4.5.2/crtbegin.o
 .eh_frame      0xa0000004        0x4 ../../pic32/compiler/pic32-tools/bin/../lib/gcc/pic32mx/4.5.2/crtend.o
 .eh_frame      0xa0000008       0x28 ../../pic32/compiler/pic32-tools/bin/../lib/gcc/pic32mx/4.5.2\libgcc.a(_divdi3.o)
 .eh_frame      0xa0000030       0x14 ../../pic32/compiler/pic32-tools/bin/../lib/gcc/pic32mx/4.5.2\libgcc.a(_udivdi3.o)
 .eh_frame      0xa0000044       0x14 ../../pic32/compiler/pic32-tools/bin/../lib/gcc/pic32mx/4.5.2\libgcc.a(_umoddi3.o)
                0xa0000058                . = ALIGN (0x4)

.gcc_except_table
 *(.gcc_except_table .gcc_except_table.*)
                0xa0000058                . = ALIGN (0x4)

.persist        0xa0000058        0x0
                0xa0000058                _persist_begin = .
 *(.persist .persist.*)
 *(.pbss .pbss.*)
                0xa0000058                . = ALIGN (0x4)
                0xa0000058                _persist_end = .

.data           0xa0000058        0x0
 *(.gnu.linkonce.d.*)
 *(.data1)
                0xa0000058                . = ALIGN (0x4)
                0xa0000058                . = .
                0xa0008050                _gp = (ALIGN (0x10) + 0x7ff0)

.got            0xa0000058        0x0
 *(.got.plt)
 *(.got)
                0xa0000058                . = ALIGN (0x4)

.sdata          0xa0000058       0x30
                0xa0000058                _sdata_begin = .
 *(.sdata .sdata.* .gnu.linkonce.s.*)
 .sdata         0xa0000058        0x4 obj/mmc_xmega.o
 .sdata         0xa000005c       0x10 obj/maze.o
 .sdata         0xa000006c        0x4 ../../pic32/compiler/pic32-tools/bin/../lib/gcc/pic32mx/4.5.2/crtbegin.o
                0xa000006c                __dso_handle
 .sdata._impure_ptr._impure_ptr
                0xa0000070        0x4 ../../pic32/compiler/pic32-tools/bin/../lib/gcc/pic32mx/4.5.2/../../../../pic32mx/lib\libc.a(lib_a-impure.o)
                0xa0000070                _impure_ptr
 .sdata.__mb_cur_max.__mb_cur_max
                0xa0000074        0x4 ../../pic32/compiler/pic32-tools/bin/../lib/gcc/pic32mx/4.5.2/../../../../pic32mx/lib\libc.a(lib_a-locale.o)
                0xa0000074                __mb_cur_max
 .sdata.__malloc_trim_threshold.__malloc_trim_threshold
                0xa0000078        0x4 ../../pic32/compiler/pic32-tools/bin/../lib/gcc/pic32mx/4.5.2/../../../../pic32mx/lib\libc.a(lib_a-mallocr.o)
                0xa0000078                __malloc_trim_threshold
 .sdata.__malloc_sbrk_base.__malloc_sbrk_base
                0xa000007c        0x4 ../../pic32/compiler/pic32-tools/bin/../lib/gcc/pic32mx/4.5.2/../../../../pic32mx/lib\libc.a(lib_a-mallocr.o)
                0xa000007c                __malloc_sbrk_base
 .sdata.__wctomb.__wctomb
                0xa0000080        0x4 ../../pic32/compiler/pic32-tools/bin/../lib/gcc/pic32mx/4.5.2/../../../../pic32mx/lib\libc.a(lib_a-wctomb_r.o)
                0xa0000080                __wctomb
 .sdata.__XC_UART
                0xa0000084        0x4 ../../pic32/compiler/pic32-tools/bin/../lib/gcc/pic32mx/4.5.2/../../../../pic32mx/lib\libpic32.a(xc32_uart.o)
                0xa0000084                __XC_UART
                0xa0000088                . = ALIGN (0x4)
                0xa0000088                _sdata_end = .

.lit8
 *(.lit8)

.lit4
 *(.lit4)
                0xa0000088                . = ALIGN (0x4)
                0xa0000088                _data_end = .
                0xa0000088                _bss_begin = .

.sbss           0xa0000088       0x3c
                0xa0000088                _sbss_begin = .
 *(.dynsbss)
 *(.sbss .sbss.* .gnu.linkonce.sb.*)
 .sbss          0xa0000088        0x8 obj/ff.o
 .sbss          0xa0000090        0xc obj/mmc_xmega.o
 .sbss          0xa000009c        0x4 obj/graphiclib.o
                0xa000009c                frame
 .sbss.__nlocale_changed.__nlocale_changed
                0xa00000a0        0x4 ../../pic32/compiler/pic32-tools/bin/../lib/gcc/pic32mx/4.5.2/../../../../pic32mx/lib\libc.a(lib_a-locale.o)
                0xa00000a0                __nlocale_changed
 .sbss.__mlocale_changed.__mlocale_changed
                0xa00000a4        0x4 ../../pic32/compiler/pic32-tools/bin/../lib/gcc/pic32mx/4.5.2/../../../../pic32mx/lib\libc.a(lib_a-locale.o)
                0xa00000a4                __mlocale_changed
 .sbss._PathLocale._PathLocale
                0xa00000a8        0x4 ../../pic32/compiler/pic32-tools/bin/../lib/gcc/pic32mx/4.5.2/../../../../pic32mx/lib\libc.a(lib_a-locale.o)
                0xa00000a8                _PathLocale
 .sbss.__malloc_top_pad.__malloc_top_pad
                0xa00000ac        0x4 ../../pic32/compiler/pic32-tools/bin/../lib/gcc/pic32mx/4.5.2/../../../../pic32mx/lib\libc.a(lib_a-mallocr.o)
                0xa00000ac                __malloc_top_pad
 .sbss.__malloc_max_sbrked_mem.__malloc_max_sbrked_mem
                0xa00000b0        0x4 ../../pic32/compiler/pic32-tools/bin/../lib/gcc/pic32mx/4.5.2/../../../../pic32mx/lib\libc.a(lib_a-mallocr.o)
                0xa00000b0                __malloc_max_sbrked_mem
 .sbss.__malloc_max_total_mem.__malloc_max_total_mem
                0xa00000b4        0x4 ../../pic32/compiler/pic32-tools/bin/../lib/gcc/pic32mx/4.5.2/../../../../pic32mx/lib\libc.a(lib_a-mallocr.o)
                0xa00000b4                __malloc_max_total_mem
 .sbss._minbrk._minbrk
                0xa00000b8        0x4 ../../pic32/compiler/pic32-tools/bin/../lib/gcc/pic32mx/4.5.2/../../../../pic32mx/lib\libpic32.a(sbrk.o)
                0xa00000b8                _minbrk
 .sbss._maxbrk._maxbrk
                0xa00000bc        0x4 ../../pic32/compiler/pic32-tools/bin/../lib/gcc/pic32mx/4.5.2/../../../../pic32mx/lib\libpic32.a(sbrk.o)
                0xa00000bc                _maxbrk
 *(.scommon)
 .scommon       0xa00000c0        0x4 ../../pic32/compiler/pic32-tools/bin/../lib/gcc/pic32mx/4.5.2/../../../../pic32mx/lib\libc.a(lib_a-reent.o)
                0xa00000c0                errno
                0xa00000c4                _sbss_end = .
                0xa00000c4                . = ALIGN (0x4)

.bss            0xa00000c4        0x0
 *(.dynbss)
 *(COMMON)
                0xa00000c4                . = ALIGN ((. != 0x0)?0x4:0x1)
                0xa00000c4                . = ALIGN (0x4)
                0xa00000c4                _end = .
                0xa00000c4                _bss_end = .
                0x00010000                _bmxdudba_address = 0x10000
                0x00010000                _bmxdupba_address = 0x10000

/DISCARD/
 *(.pdr)
 *(.rel.dyn)
 *(.note.GNU-stack)
 *(.note.GNU-stack)
 *(.gnu_debuglink)
 *(.gnu.lto_*)
 *(.discard)

.gptab.sdata
 *(.gptab.data)
 *(.gptab.sdata)

.gptab.sbss
 *(.gptab.bss)
 *(.gptab.sbss)

.mdebug.abi32   0xa00000c4        0x0
 *(.mdebug.abi32)
 .mdebug.abi32  0xa00000c4        0x0 obj/ff.o
 .mdebug.abi32  0xa00000c4        0x0 obj/mmc_xmega.o
 .mdebug.abi32  0xa00000c4        0x0 obj/graphicdraw.o
 .mdebug.abi32  0xa00000c4        0x0 obj/graphiclib.o
 .mdebug.abi32  0xa00000c4        0x0 obj/matrix4.o
 .mdebug.abi32  0xa00000c4        0x0 obj/maze.o
 .mdebug.abi32  0xa00000c4        0x0 obj/newmain.o
 .mdebug.abi32  0xa00000c4        0x0 obj/triangle.o
 .mdebug.abi32  0xa00000c4        0x0 obj/vector2.o
 .mdebug.abi32  0xa00000c4        0x0 obj/vector3.o
 .mdebug.abi32  0xa00000c4        0x0 ../../pic32/compiler/pic32-tools/bin/../lib/gcc/pic32mx/4.5.2/crtbegin.o
 .mdebug.abi32  0xa00000c4        0x0 ../../pic32/compiler/pic32-tools/bin/../lib/gcc/pic32mx/4.5.2/crtend.o
 .mdebug.abi32  0xa00000c4        0x0 ../../pic32/compiler/pic32-tools/bin/../lib/gcc/pic32mx/4.5.2/../../../../pic32mx/lib\libm.a(lib_a-s_cos.o)
 .mdebug.abi32  0xa00000c4        0x0 ../../pic32/compiler/pic32-tools/bin/../lib/gcc/pic32mx/4.5.2/../../../../pic32mx/lib\libm.a(lib_a-sf_cos.o)
 .mdebug.abi32  0xa00000c4        0x0 ../../pic32/compiler/pic32-tools/bin/../lib/gcc/pic32mx/4.5.2/../../../../pic32mx/lib\libm.a(lib_a-sf_sin.o)
 .mdebug.abi32  0xa00000c4        0x0 ../../pic32/compiler/pic32-tools/bin/../lib/gcc/pic32mx/4.5.2/../../../../pic32mx/lib\libm.a(lib_a-s_sin.o)
 .mdebug.abi32  0xa00000c4        0x0 ../../pic32/compiler/pic32-tools/bin/../lib/gcc/pic32mx/4.5.2/../../../../pic32mx/lib\libm.a(lib_a-s_tan.o)
 .mdebug.abi32  0xa00000c4        0x0 ../../pic32/compiler/pic32-tools/bin/../lib/gcc/pic32mx/4.5.2/../../../../pic32mx/lib\libm.a(lib_a-ef_rem_pio2.o)
 .mdebug.abi32  0xa00000c4        0x0 ../../pic32/compiler/pic32-tools/bin/../lib/gcc/pic32mx/4.5.2/../../../../pic32mx/lib\libm.a(lib_a-e_rem_pio2.o)
 .mdebug.abi32  0xa00000c4        0x0 ../../pic32/compiler/pic32-tools/bin/../lib/gcc/pic32mx/4.5.2/../../../../pic32mx/lib\libm.a(lib_a-k_cos.o)
 .mdebug.abi32  0xa00000c4        0x0 ../../pic32/compiler/pic32-tools/bin/../lib/gcc/pic32mx/4.5.2/../../../../pic32mx/lib\libm.a(lib_a-kf_cos.o)
 .mdebug.abi32  0xa00000c4        0x0 ../../pic32/compiler/pic32-tools/bin/../lib/gcc/pic32mx/4.5.2/../../../../pic32mx/lib\libm.a(lib_a-kf_rem_pio2.o)
 .mdebug.abi32  0xa00000c4        0x0 ../../pic32/compiler/pic32-tools/bin/../lib/gcc/pic32mx/4.5.2/../../../../pic32mx/lib\libm.a(lib_a-kf_sin.o)
 .mdebug.abi32  0xa00000c4        0x0 ../../pic32/compiler/pic32-tools/bin/../lib/gcc/pic32mx/4.5.2/../../../../pic32mx/lib\libm.a(lib_a-k_rem_pio2.o)
 .mdebug.abi32  0xa00000c4        0x0 ../../pic32/compiler/pic32-tools/bin/../lib/gcc/pic32mx/4.5.2/../../../../pic32mx/lib\libm.a(lib_a-k_sin.o)
 .mdebug.abi32  0xa00000c4        0x0 ../../pic32/compiler/pic32-tools/bin/../lib/gcc/pic32mx/4.5.2/../../../../pic32mx/lib\libm.a(lib_a-k_tan.o)
 .mdebug.abi32  0xa00000c4        0x0 ../../pic32/compiler/pic32-tools/bin/../lib/gcc/pic32mx/4.5.2/../../../../pic32mx/lib\libm.a(lib_a-s_fabs.o)
 .mdebug.abi32  0xa00000c4        0x0 ../../pic32/compiler/pic32-tools/bin/../lib/gcc/pic32mx/4.5.2/../../../../pic32mx/lib\libm.a(lib_a-sf_fabs.o)
 .mdebug.abi32  0xa00000c4        0x0 ../../pic32/compiler/pic32-tools/bin/../lib/gcc/pic32mx/4.5.2/../../../../pic32mx/lib\libm.a(lib_a-sf_floor.o)
 .mdebug.abi32  0xa00000c4        0x0 ../../pic32/compiler/pic32-tools/bin/../lib/gcc/pic32mx/4.5.2/../../../../pic32mx/lib\libm.a(lib_a-s_floor.o)
 .mdebug.abi32  0xa00000c4        0x0 ../../pic32/compiler/pic32-tools/bin/../lib/gcc/pic32mx/4.5.2/../../../../pic32mx/lib\libm.a(lib_a-sf_scalbn.o)
 .mdebug.abi32  0xa00000c4        0x0 ../../pic32/compiler/pic32-tools/bin/../lib/gcc/pic32mx/4.5.2/../../../../pic32mx/lib\libm.a(lib_a-s_scalbn.o)
 .mdebug.abi32  0xa00000c4        0x0 ../../pic32/compiler/pic32-tools/bin/../lib/gcc/pic32mx/4.5.2/../../../../pic32mx/lib\libm.a(lib_a-s_copysign.o)
 .mdebug.abi32  0xa00000c4        0x0 ../../pic32/compiler/pic32-tools/bin/../lib/gcc/pic32mx/4.5.2/../../../../pic32mx/lib\libm.a(lib_a-sf_copysign.o)
 .mdebug.abi32  0xa00000c4        0x0 ../../pic32/compiler/pic32-tools/bin/../lib/gcc/pic32mx/4.5.2\libgcc.a(_divdi3.o)
 .mdebug.abi32  0xa00000c4        0x0 ../../pic32/compiler/pic32-tools/bin/../lib/gcc/pic32mx/4.5.2\libgcc.a(addsf3.o)
 .mdebug.abi32  0xa00000c4        0x0 ../../pic32/compiler/pic32-tools/bin/../lib/gcc/pic32mx/4.5.2\libgcc.a(eqsf2.o)
 .mdebug.abi32  0xa00000c4        0x0 ../../pic32/compiler/pic32-tools/bin/../lib/gcc/pic32mx/4.5.2\libgcc.a(gesf2.o)
 .mdebug.abi32  0xa00000c4        0x0 ../../pic32/compiler/pic32-tools/bin/../lib/gcc/pic32mx/4.5.2\libgcc.a(mulsf3.o)
 .mdebug.abi32  0xa00000c4        0x0 ../../pic32/compiler/pic32-tools/bin/../lib/gcc/pic32mx/4.5.2\libgcc.a(subsf3.o)
 .mdebug.abi32  0xa00000c4        0x0 ../../pic32/compiler/pic32-tools/bin/../lib/gcc/pic32mx/4.5.2\libgcc.a(fixsfsi.o)
 .mdebug.abi32  0xa00000c4        0x0 ../../pic32/compiler/pic32-tools/bin/../lib/gcc/pic32mx/4.5.2\libgcc.a(floatsisf.o)
 .mdebug.abi32  0xa00000c4        0x0 ../../pic32/compiler/pic32-tools/bin/../lib/gcc/pic32mx/4.5.2\libgcc.a(floatunsisf.o)
 .mdebug.abi32  0xa00000c4        0x0 ../../pic32/compiler/pic32-tools/bin/../lib/gcc/pic32mx/4.5.2\libgcc.a(adddf3.o)
 .mdebug.abi32  0xa00000c4        0x0 ../../pic32/compiler/pic32-tools/bin/../lib/gcc/pic32mx/4.5.2\libgcc.a(divdf3.o)
 .mdebug.abi32  0xa00000c4        0x0 ../../pic32/compiler/pic32-tools/bin/../lib/gcc/pic32mx/4.5.2\libgcc.a(eqdf2.o)
 .mdebug.abi32  0xa00000c4        0x0 ../../pic32/compiler/pic32-tools/bin/../lib/gcc/pic32mx/4.5.2\libgcc.a(gedf2.o)
 .mdebug.abi32  0xa00000c4        0x0 ../../pic32/compiler/pic32-tools/bin/../lib/gcc/pic32mx/4.5.2\libgcc.a(muldf3.o)
 .mdebug.abi32  0xa00000c4        0x0 ../../pic32/compiler/pic32-tools/bin/../lib/gcc/pic32mx/4.5.2\libgcc.a(subdf3.o)
 .mdebug.abi32  0xa00000c4        0x0 ../../pic32/compiler/pic32-tools/bin/../lib/gcc/pic32mx/4.5.2\libgcc.a(fixdfsi.o)
 .mdebug.abi32  0xa00000c4        0x0 ../../pic32/compiler/pic32-tools/bin/../lib/gcc/pic32mx/4.5.2\libgcc.a(floatsidf.o)
 .mdebug.abi32  0xa00000c4        0x0 ../../pic32/compiler/pic32-tools/bin/../lib/gcc/pic32mx/4.5.2\libgcc.a(floatunsidf.o)
 .mdebug.abi32  0xa00000c4        0x0 ../../pic32/compiler/pic32-tools/bin/../lib/gcc/pic32mx/4.5.2\libgcc.a(extendsfdf2.o)
 .mdebug.abi32  0xa00000c4        0x0 ../../pic32/compiler/pic32-tools/bin/../lib/gcc/pic32mx/4.5.2\libgcc.a(truncdfsf2.o)
 .mdebug.abi32  0xa00000c4        0x0 ../../pic32/compiler/pic32-tools/bin/../lib/gcc/pic32mx/4.5.2/../../../../pic32mx/lib\libc.a(lib_a-assert.o)
 .mdebug.abi32  0xa00000c4        0x0 ../../pic32/compiler/pic32-tools/bin/../lib/gcc/pic32mx/4.5.2/../../../../pic32mx/lib\libc.a(lib_a-fiprintf.o)
 .mdebug.abi32  0xa00000c4        0x0 ../../pic32/compiler/pic32-tools/bin/../lib/gcc/pic32mx/4.5.2/../../../../pic32mx/lib\libc.a(lib_a-impure.o)
 .mdebug.abi32  0xa00000c4        0x0 ../../pic32/compiler/pic32-tools/bin/../lib/gcc/pic32mx/4.5.2/../../../../pic32mx/lib\libc.a(lib_a-printf.o)
 .mdebug.abi32  0xa00000c4        0x0 ../../pic32/compiler/pic32-tools/bin/../lib/gcc/pic32mx/4.5.2/../../../../pic32mx/lib\libc.a(lib_a-vfiprintf.o)
 .mdebug.abi32  0xa00000c4        0x0 ../../pic32/compiler/pic32-tools/bin/../lib/gcc/pic32mx/4.5.2/../../../../pic32mx/lib\libc.a(lib_a-vfprintf.o)
 .mdebug.abi32  0xa00000c4        0x0 ../../pic32/compiler/pic32-tools/bin/../lib/gcc/pic32mx/4.5.2/../../../../pic32mx/lib\libc.a(lib_a-wsetup.o)
 .mdebug.abi32  0xa00000c4        0x0 ../../pic32/compiler/pic32-tools/bin/../lib/gcc/pic32mx/4.5.2/../../../../pic32mx/lib\libc.a(lib_a-abort.o)
 .mdebug.abi32  0xa00000c4        0x0 ../../pic32/compiler/pic32-tools/bin/../lib/gcc/pic32mx/4.5.2/../../../../pic32mx/lib\libc.a(lib_a-dtoa.o)
 .mdebug.abi32  0xa00000c4        0x0 ../../pic32/compiler/pic32-tools/bin/../lib/gcc/pic32mx/4.5.2/../../../../pic32mx/lib\libc.a(lib_a-fflush.o)
 .mdebug.abi32  0xa00000c4        0x0 ../../pic32/compiler/pic32-tools/bin/../lib/gcc/pic32mx/4.5.2/../../../../pic32mx/lib\libc.a(lib_a-findfp.o)
 .mdebug.abi32  0xa00000c4        0x0 ../../pic32/compiler/pic32-tools/bin/../lib/gcc/pic32mx/4.5.2/../../../../pic32mx/lib\libc.a(lib_a-fputwc.o)
 .mdebug.abi32  0xa00000c4        0x0 ../../pic32/compiler/pic32-tools/bin/../lib/gcc/pic32mx/4.5.2/../../../../pic32mx/lib\libc.a(lib_a-freer.o)
 .mdebug.abi32  0xa00000c4        0x0 ../../pic32/compiler/pic32-tools/bin/../lib/gcc/pic32mx/4.5.2/../../../../pic32mx/lib\libc.a(lib_a-fvwrite.o)
 .mdebug.abi32  0xa00000c4        0x0 ../../pic32/compiler/pic32-tools/bin/../lib/gcc/pic32mx/4.5.2/../../../../pic32mx/lib\libc.a(lib_a-fwalk.o)
 .mdebug.abi32  0xa00000c4        0x0 ../../pic32/compiler/pic32-tools/bin/../lib/gcc/pic32mx/4.5.2/../../../../pic32mx/lib\libc.a(lib_a-locale.o)
 .mdebug.abi32  0xa00000c4        0x0 ../../pic32/compiler/pic32-tools/bin/../lib/gcc/pic32mx/4.5.2/../../../../pic32mx/lib\libc.a(lib_a-makebuf.o)
 .mdebug.abi32  0xa00000c4        0x0 ../../pic32/compiler/pic32-tools/bin/../lib/gcc/pic32mx/4.5.2/../../../../pic32mx/lib\libc.a(lib_a-mallocr.o)
 .mdebug.abi32  0xa00000c4        0x0 ../../pic32/compiler/pic32-tools/bin/../lib/gcc/pic32mx/4.5.2/../../../../pic32mx/lib\libc.a(lib_a-memchr.o)
 .mdebug.abi32  0xa00000c4        0x0 ../../pic32/compiler/pic32-tools/bin/../lib/gcc/pic32mx/4.5.2/../../../../pic32mx/lib\libc.a(lib_a-memcpy.o)
 .mdebug.abi32  0xa00000c4        0x0 ../../pic32/compiler/pic32-tools/bin/../lib/gcc/pic32mx/4.5.2/../../../../pic32mx/lib\libc.a(lib_a-memmove.o)
 .mdebug.abi32  0xa00000c4        0x0 ../../pic32/compiler/pic32-tools/bin/../lib/gcc/pic32mx/4.5.2/../../../../pic32mx/lib\libc.a(lib_a-memset.o)
 .mdebug.abi32  0xa00000c4        0x0 ../../pic32/compiler/pic32-tools/bin/../lib/gcc/pic32mx/4.5.2/../../../../pic32mx/lib\libc.a(lib_a-mlock.o)
 .mdebug.abi32  0xa00000c4        0x0 ../../pic32/compiler/pic32-tools/bin/../lib/gcc/pic32mx/4.5.2/../../../../pic32mx/lib\libc.a(lib_a-mprec.o)
 .mdebug.abi32  0xa00000c4        0x0 ../../pic32/compiler/pic32-tools/bin/../lib/gcc/pic32mx/4.5.2/../../../../pic32mx/lib\libc.a(lib_a-reallocr.o)
 .mdebug.abi32  0xa00000c4        0x0 ../../pic32/compiler/pic32-tools/bin/../lib/gcc/pic32mx/4.5.2/../../../../pic32mx/lib\libc.a(lib_a-sbrkr.o)
 .mdebug.abi32  0xa00000c4        0x0 ../../pic32/compiler/pic32-tools/bin/../lib/gcc/pic32mx/4.5.2/../../../../pic32mx/lib\libc.a(lib_a-s_fpclassify.o)
 .mdebug.abi32  0xa00000c4        0x0 ../../pic32/compiler/pic32-tools/bin/../lib/gcc/pic32mx/4.5.2/../../../../pic32mx/lib\libc.a(lib_a-signal.o)
 .mdebug.abi32  0xa00000c4        0x0 ../../pic32/compiler/pic32-tools/bin/../lib/gcc/pic32mx/4.5.2/../../../../pic32mx/lib\libc.a(lib_a-signalr.o)
 .mdebug.abi32  0xa00000c4        0x0 ../../pic32/compiler/pic32-tools/bin/../lib/gcc/pic32mx/4.5.2/../../../../pic32mx/lib\libc.a(lib_a-stdio.o)
 .mdebug.abi32  0xa00000c4        0x0 ../../pic32/compiler/pic32-tools/bin/../lib/gcc/pic32mx/4.5.2/../../../../pic32mx/lib\libc.a(lib_a-strcmp.o)
 .mdebug.abi32  0xa00000c4        0x0 ../../pic32/compiler/pic32-tools/bin/../lib/gcc/pic32mx/4.5.2/../../../../pic32mx/lib\libc.a(lib_a-strlen.o)
 .mdebug.abi32  0xa00000c4        0x0 ../../pic32/compiler/pic32-tools/bin/../lib/gcc/pic32mx/4.5.2/../../../../pic32mx/lib\libc.a(lib_a-wbuf.o)
 .mdebug.abi32  0xa00000c4        0x0 ../../pic32/compiler/pic32-tools/bin/../lib/gcc/pic32mx/4.5.2/../../../../pic32mx/lib\libc.a(lib_a-wcrtomb.o)
 .mdebug.abi32  0xa00000c4        0x0 ../../pic32/compiler/pic32-tools/bin/../lib/gcc/pic32mx/4.5.2/../../../../pic32mx/lib\libc.a(lib_a-wctomb_r.o)
 .mdebug.abi32  0xa00000c4        0x0 ../../pic32/compiler/pic32-tools/bin/../lib/gcc/pic32mx/4.5.2/../../../../pic32mx/lib\libc.a(lib_a-writer.o)
 .mdebug.abi32  0xa00000c4        0x0 ../../pic32/compiler/pic32-tools/bin/../lib/gcc/pic32mx/4.5.2/../../../../pic32mx/lib\libc.a(lib_a-callocr.o)
 .mdebug.abi32  0xa00000c4        0x0 ../../pic32/compiler/pic32-tools/bin/../lib/gcc/pic32mx/4.5.2/../../../../pic32mx/lib\libc.a(lib_a-closer.o)
 .mdebug.abi32  0xa00000c4        0x0 ../../pic32/compiler/pic32-tools/bin/../lib/gcc/pic32mx/4.5.2/../../../../pic32mx/lib\libc.a(lib_a-fclose.o)
 .mdebug.abi32  0xa00000c4        0x0 ../../pic32/compiler/pic32-tools/bin/../lib/gcc/pic32mx/4.5.2/../../../../pic32mx/lib\libc.a(lib_a-fstatr.o)
 .mdebug.abi32  0xa00000c4        0x0 ../../pic32/compiler/pic32-tools/bin/../lib/gcc/pic32mx/4.5.2/../../../../pic32mx/lib\libc.a(lib_a-isattyr.o)
 .mdebug.abi32  0xa00000c4        0x0 ../../pic32/compiler/pic32-tools/bin/../lib/gcc/pic32mx/4.5.2/../../../../pic32mx/lib\libc.a(lib_a-lseekr.o)
 .mdebug.abi32  0xa00000c4        0x0 ../../pic32/compiler/pic32-tools/bin/../lib/gcc/pic32mx/4.5.2/../../../../pic32mx/lib\libc.a(lib_a-readr.o)
 .mdebug.abi32  0xa00000c4        0x0 ../../pic32/compiler/pic32-tools/bin/../lib/gcc/pic32mx/4.5.2/../../../../pic32mx/lib\libc.a(lib_a-reent.o)
 .mdebug.abi32  0xa00000c4        0x0 ../../pic32/compiler/pic32-tools/bin/../lib/gcc/pic32mx/4.5.2/../../../../pic32mx/lib\libpic32.a(sbrk.o)
 .mdebug.abi32  0xa00000c4        0x0 ../../pic32/compiler/pic32-tools/bin/../lib/gcc/pic32mx/4.5.2/../../../../pic32mx/lib\libpic32.a(default-bootstrap-exception-handler.o)
 .mdebug.abi32  0xa00000c4        0x0 ../../pic32/compiler/pic32-tools/bin/../lib/gcc/pic32mx/4.5.2/../../../../pic32mx/lib\libpic32.a(default-on-reset.o)
 .mdebug.abi32  0xa00000c4        0x0 ../../pic32/compiler/pic32-tools/bin/../lib/gcc/pic32mx/4.5.2/../../../../pic32mx/lib\libpic32.a(default-on-bootstrap.o)
 .mdebug.abi32  0xa00000c4        0x0 ../../pic32/compiler/pic32-tools/bin/../lib/gcc/pic32mx/4.5.2/../../../../pic32mx/lib\libpic32.a(_exit.o)
 .mdebug.abi32  0xa00000c4        0x0 ../../pic32/compiler/pic32-tools/bin/../lib/gcc/pic32mx/4.5.2/../../../../pic32mx/lib\libpic32.a(isatty.o)
 .mdebug.abi32  0xa00000c4        0x0 ../../pic32/compiler/pic32-tools/bin/../lib/gcc/pic32mx/4.5.2/../../../../pic32mx/lib\libpic32.a(read.o)
 .mdebug.abi32  0xa00000c4        0x0 ../../pic32/compiler/pic32-tools/bin/../lib/gcc/pic32mx/4.5.2/../../../../pic32mx/lib\libpic32.a(write.o)
 .mdebug.abi32  0xa00000c4        0x0 ../../pic32/compiler/pic32-tools/bin/../lib/gcc/pic32mx/4.5.2/../../../../pic32mx/lib\libpic32.a(lseek.o)
 .mdebug.abi32  0xa00000c4        0x0 ../../pic32/compiler/pic32-tools/bin/../lib/gcc/pic32mx/4.5.2/../../../../pic32mx/lib\libpic32.a(close.o)
 .mdebug.abi32  0xa00000c4        0x0 ../../pic32/compiler/pic32-tools/bin/../lib/gcc/pic32mx/4.5.2/../../../../pic32mx/lib\libpic32.a(fstat.o)
 .mdebug.abi32  0xa00000c4        0x0 ../../pic32/compiler/pic32-tools/bin/../lib/gcc/pic32mx/4.5.2/../../../../pic32mx/lib\libpic32.a(kill.o)
 .mdebug.abi32  0xa00000c4        0x0 ../../pic32/compiler/pic32-tools/bin/../lib/gcc/pic32mx/4.5.2/../../../../pic32mx/lib\libpic32.a(getpid.o)
 .mdebug.abi32  0xa00000c4        0x0 ../../pic32/compiler/pic32-tools/bin/../lib/gcc/pic32mx/4.5.2/../../../../pic32mx/lib\libpic32.a(xc32_uart.o)
 .mdebug.abi32  0xa00000c4        0x0 ../../pic32/compiler/pic32-tools/bin/../lib/gcc/pic32mx/4.5.2/../../../../pic32mx/lib\libpic32.a(_mon_putc.o)
 .mdebug.abi32  0xa00000c4        0x0 ../../pic32/compiler/pic32-tools/bin/../lib/gcc/pic32mx/4.5.2/../../../../pic32mx/lib\libpic32.a(defaultinterrupt.o)
 .mdebug.abi32  0xa00000c4        0x0 ../../pic32/compiler/pic32-tools/bin/../lib/gcc/pic32mx/4.5.2\libgcc.a(_udivdi3.o)
 .mdebug.abi32  0xa00000c4        0x0 ../../pic32/compiler/pic32-tools/bin/../lib/gcc/pic32mx/4.5.2\libgcc.a(_umoddi3.o)
 .mdebug.abi32  0xa00000c4        0x0 ../../pic32/compiler/pic32-tools/bin/../lib/gcc/pic32mx/4.5.2\libgcc.a(ledf2.o)
 .mdebug.abi32  0xa00000c4        0x0 ../../pic32/compiler/pic32-tools/bin/../lib/gcc/pic32mx/4.5.2/../../../../pic32mx/lib\libmchp_peripheral_32MX250F128B.a(osc_config_lib.o)
 .mdebug.abi32  0xa00000c4        0x0 ../../pic32/compiler/pic32-tools/bin/../lib/gcc/pic32mx/4.5.2/../../../../pic32mx/lib\libmchp_peripheral_32MX250F128B.a(int_disable_interrupts_lib.o)
 .mdebug.abi32  0xa00000c4        0x0 ../../pic32/compiler/pic32-tools/bin/../lib/gcc/pic32mx/4.5.2/../../../../pic32mx/lib\libmchp_peripheral_32MX250F128B.a(int_restore_interrupts_lib.o)
 .mdebug.abi32  0xa00000c4        0x0 ../../pic32/compiler/pic32-tools/bin/../lib/gcc/pic32mx/4.5.2/../../../../pic32mx/lib\libmchp_peripheral_32MX250F128B.a(spi_getc_spi2_lib_legacy.o)
 .mdebug.abi32  0xa00000c4        0x0 ../../pic32/compiler/pic32-tools/bin/../lib/gcc/pic32mx/4.5.2/../../../../pic32mx/lib\libmchp_peripheral_32MX250F128B.a(spi_open_spi2_lib_legacy.o)
 .mdebug.abi32  0xa00000c4        0x0 ../../pic32/compiler/pic32-tools/bin/../lib/gcc/pic32mx/4.5.2/../../../../pic32mx/lib\libmchp_peripheral_32MX250F128B.a(spi_brg_tbl_lib_legacy.o)
 .mdebug.abi32  0xa00000c4        0x0 ../../pic32/compiler/pic32-tools/bin/../lib/gcc/pic32mx/4.5.2/../../../../pic32mx/lib\libmchp_peripheral_32MX250F128B.a(dma_chn_clr_ev_flags_lib.o)
 .mdebug.abi32  0xa00000c4        0x0 ../../pic32/compiler/pic32-tools/bin/../lib/gcc/pic32mx/4.5.2/../../../../pic32mx/lib\libmchp_peripheral_32MX250F128B.a(dma_chn_open_lib.o)
 .mdebug.abi32  0xa00000c4        0x0 ../../pic32/compiler/pic32-tools/bin/../lib/gcc/pic32mx/4.5.2/../../../../pic32mx/lib\libmchp_peripheral_32MX250F128B.a(dma_chn_enable_lib.o)
 .mdebug.abi32  0xa00000c4        0x0 ../../pic32/compiler/pic32-tools/bin/../lib/gcc/pic32mx/4.5.2/../../../../pic32mx/lib\libmchp_peripheral_32MX250F128B.a(dma_chn_get_ev_flags_lib.o)
 .mdebug.abi32  0xa00000c4        0x0 ../../pic32/compiler/pic32-tools/bin/../lib/gcc/pic32mx/4.5.2/../../../../pic32mx/lib\libmchp_peripheral_32MX250F128B.a(dma_chn_write_event_control_flags_lib.o)
 .mdebug.abi32  0xa00000c4        0x0 ../../pic32/compiler/pic32-tools/bin/../lib/gcc/pic32mx/4.5.2/../../../../pic32mx/lib\libmchp_peripheral_32MX250F128B.a(dma_chn_set_txfer_lib.o)
 .mdebug.abi32  0xa00000c4        0x0 ../../pic32/compiler/pic32-tools/bin/../lib/gcc/pic32mx/4.5.2/../../../../pic32mx/lib\libmchp_peripheral_32MX250F128B.a(dma_chn_start_txfer_lib.o)
 .mdebug.abi32  0xa00000c4        0x0 ../../pic32/compiler/pic32-tools/bin/../lib/gcc/pic32mx/4.5.2/../../../../pic32mx/lib\libmchp_peripheral_32MX250F128B.a(dma_reg_map_tbl_lib.o)
 .mdebug.abi32  0xa00000c4        0x0 ../../pic32/compiler/pic32-tools/bin/../lib/gcc/pic32mx/4.5.2/../../../../pic32mx/lib\libmchp_peripheral_32MX250F128B.a(int_tbl_lib.o)
 .mdebug.abi32  0xa00000c4        0x0 ../../pic32/compiler/pic32-tools/bin/../lib/gcc/pic32mx/4.5.2/../../../../pic32mx/lib\libc.a(lib_a-errno.o)

.mdebug.abiN32
 *(.mdebug.abiN32)

.mdebug.abi64
 *(.mdebug.abi64)

.mdebug.abiO64
 *(.mdebug.abiO64)

.mdebug.eabi32
 *(.mdebug.eabi32)

.mdebug.eabi64
 *(.mdebug.eabi64)

.gcc_compiled_long32
 *(.gcc_compiled_long32)

.gcc_compiled_long64
 *(.gcc_compiled_long64)

.stab
 *(.stab)

.stabstr
 *(.stabstr)

.stab.excl
 *(.stab.excl)

.stab.exclstr
 *(.stab.exclstr)

.stab.index
 *(.stab.index)

.stab.indexstr
 *(.stab.indexstr)

.comment        0x00000000      0x110
 *(.comment)
 .comment       0x00000000       0x3b obj/ff.o
                                 0x3c (size before relaxing)
 .comment       0x00000000       0x3c obj/mmc_xmega.o
 .comment       0x00000000       0x3c obj/graphicdraw.o
 .comment       0x00000000       0x3c obj/graphiclib.o
 .comment       0x00000000       0x3c obj/matrix4.o
 .comment       0x00000000       0x3c obj/maze.o
 .comment       0x00000000       0x3c obj/newmain.o
 .comment       0x00000000       0x3c obj/triangle.o
 .comment       0x00000000       0x3c obj/vector2.o
 .comment       0x00000000       0x3c obj/vector3.o
 .comment       0x00000000       0x3c ../../pic32/compiler/pic32-tools/bin/../lib/gcc/pic32mx/4.5.2/crtbegin.o
 .comment       0x00000000       0x3c ../../pic32/compiler/pic32-tools/bin/../lib/gcc/pic32mx/4.5.2/crtend.o
 .comment       0x00000000       0x3c ../../pic32/compiler/pic32-tools/bin/../lib/gcc/pic32mx/4.5.2/../../../../pic32mx/lib\libm.a(lib_a-s_cos.o)
 .comment       0x00000000       0x3c ../../pic32/compiler/pic32-tools/bin/../lib/gcc/pic32mx/4.5.2/../../../../pic32mx/lib\libm.a(lib_a-sf_cos.o)
 .comment       0x00000000       0x3c ../../pic32/compiler/pic32-tools/bin/../lib/gcc/pic32mx/4.5.2/../../../../pic32mx/lib\libm.a(lib_a-sf_sin.o)
 .comment       0x00000000       0x3c ../../pic32/compiler/pic32-tools/bin/../lib/gcc/pic32mx/4.5.2/../../../../pic32mx/lib\libm.a(lib_a-s_sin.o)
 .comment       0x00000000       0x3c ../../pic32/compiler/pic32-tools/bin/../lib/gcc/pic32mx/4.5.2/../../../../pic32mx/lib\libm.a(lib_a-s_tan.o)
 .comment       0x00000000       0x3c ../../pic32/compiler/pic32-tools/bin/../lib/gcc/pic32mx/4.5.2/../../../../pic32mx/lib\libm.a(lib_a-ef_rem_pio2.o)
 .comment       0x00000000       0x3c ../../pic32/compiler/pic32-tools/bin/../lib/gcc/pic32mx/4.5.2/../../../../pic32mx/lib\libm.a(lib_a-e_rem_pio2.o)
 .comment       0x00000000       0x3c ../../pic32/compiler/pic32-tools/bin/../lib/gcc/pic32mx/4.5.2/../../../../pic32mx/lib\libm.a(lib_a-k_cos.o)
 .comment       0x00000000       0x3c ../../pic32/compiler/pic32-tools/bin/../lib/gcc/pic32mx/4.5.2/../../../../pic32mx/lib\libm.a(lib_a-kf_cos.o)
 .comment       0x00000000       0x3c ../../pic32/compiler/pic32-tools/bin/../lib/gcc/pic32mx/4.5.2/../../../../pic32mx/lib\libm.a(lib_a-kf_rem_pio2.o)
 .comment       0x00000000       0x3c ../../pic32/compiler/pic32-tools/bin/../lib/gcc/pic32mx/4.5.2/../../../../pic32mx/lib\libm.a(lib_a-kf_sin.o)
 .comment       0x00000000       0x3c ../../pic32/compiler/pic32-tools/bin/../lib/gcc/pic32mx/4.5.2/../../../../pic32mx/lib\libm.a(lib_a-k_rem_pio2.o)
 .comment       0x00000000       0x3c ../../pic32/compiler/pic32-tools/bin/../lib/gcc/pic32mx/4.5.2/../../../../pic32mx/lib\libm.a(lib_a-k_sin.o)
 .comment       0x00000000       0x3c ../../pic32/compiler/pic32-tools/bin/../lib/gcc/pic32mx/4.5.2/../../../../pic32mx/lib\libm.a(lib_a-k_tan.o)
 .comment       0x00000000       0x3c ../../pic32/compiler/pic32-tools/bin/../lib/gcc/pic32mx/4.5.2/../../../../pic32mx/lib\libm.a(lib_a-s_fabs.o)
 .comment       0x00000000       0x3c ../../pic32/compiler/pic32-tools/bin/../lib/gcc/pic32mx/4.5.2/../../../../pic32mx/lib\libm.a(lib_a-sf_fabs.o)
 .comment       0x00000000       0x3c ../../pic32/compiler/pic32-tools/bin/../lib/gcc/pic32mx/4.5.2/../../../../pic32mx/lib\libm.a(lib_a-sf_floor.o)
 .comment       0x00000000       0x3c ../../pic32/compiler/pic32-tools/bin/../lib/gcc/pic32mx/4.5.2/../../../../pic32mx/lib\libm.a(lib_a-s_floor.o)
 .comment       0x00000000       0x3c ../../pic32/compiler/pic32-tools/bin/../lib/gcc/pic32mx/4.5.2/../../../../pic32mx/lib\libm.a(lib_a-sf_scalbn.o)
 .comment       0x00000000       0x3c ../../pic32/compiler/pic32-tools/bin/../lib/gcc/pic32mx/4.5.2/../../../../pic32mx/lib\libm.a(lib_a-s_scalbn.o)
 .comment       0x00000000       0x3c ../../pic32/compiler/pic32-tools/bin/../lib/gcc/pic32mx/4.5.2/../../../../pic32mx/lib\libm.a(lib_a-s_copysign.o)
 .comment       0x00000000       0x3c ../../pic32/compiler/pic32-tools/bin/../lib/gcc/pic32mx/4.5.2/../../../../pic32mx/lib\libm.a(lib_a-sf_copysign.o)
 .comment       0x00000000       0x3c ../../pic32/compiler/pic32-tools/bin/../lib/gcc/pic32mx/4.5.2\libgcc.a(_divdi3.o)
 .comment       0x00000000       0x3c ../../pic32/compiler/pic32-tools/bin/../lib/gcc/pic32mx/4.5.2\libgcc.a(addsf3.o)
 .comment       0x00000000       0x3c ../../pic32/compiler/pic32-tools/bin/../lib/gcc/pic32mx/4.5.2\libgcc.a(eqsf2.o)
 .comment       0x00000000       0x3c ../../pic32/compiler/pic32-tools/bin/../lib/gcc/pic32mx/4.5.2\libgcc.a(gesf2.o)
 .comment       0x00000000       0x3c ../../pic32/compiler/pic32-tools/bin/../lib/gcc/pic32mx/4.5.2\libgcc.a(mulsf3.o)
 .comment       0x00000000       0x3c ../../pic32/compiler/pic32-tools/bin/../lib/gcc/pic32mx/4.5.2\libgcc.a(subsf3.o)
 .comment       0x00000000       0x3c ../../pic32/compiler/pic32-tools/bin/../lib/gcc/pic32mx/4.5.2\libgcc.a(fixsfsi.o)
 .comment       0x00000000       0x3c ../../pic32/compiler/pic32-tools/bin/../lib/gcc/pic32mx/4.5.2\libgcc.a(floatsisf.o)
 .comment       0x00000000       0x3c ../../pic32/compiler/pic32-tools/bin/../lib/gcc/pic32mx/4.5.2\libgcc.a(floatunsisf.o)
 .comment       0x00000000       0x3c ../../pic32/compiler/pic32-tools/bin/../lib/gcc/pic32mx/4.5.2\libgcc.a(adddf3.o)
 .comment       0x00000000       0x3c ../../pic32/compiler/pic32-tools/bin/../lib/gcc/pic32mx/4.5.2\libgcc.a(divdf3.o)
 .comment       0x00000000       0x3c ../../pic32/compiler/pic32-tools/bin/../lib/gcc/pic32mx/4.5.2\libgcc.a(eqdf2.o)
 .comment       0x00000000       0x3c ../../pic32/compiler/pic32-tools/bin/../lib/gcc/pic32mx/4.5.2\libgcc.a(gedf2.o)
 .comment       0x00000000       0x3c ../../pic32/compiler/pic32-tools/bin/../lib/gcc/pic32mx/4.5.2\libgcc.a(muldf3.o)
 .comment       0x00000000       0x3c ../../pic32/compiler/pic32-tools/bin/../lib/gcc/pic32mx/4.5.2\libgcc.a(subdf3.o)
 .comment       0x00000000       0x3c ../../pic32/compiler/pic32-tools/bin/../lib/gcc/pic32mx/4.5.2\libgcc.a(fixdfsi.o)
 .comment       0x00000000       0x3c ../../pic32/compiler/pic32-tools/bin/../lib/gcc/pic32mx/4.5.2\libgcc.a(floatsidf.o)
 .comment       0x00000000       0x3c ../../pic32/compiler/pic32-tools/bin/../lib/gcc/pic32mx/4.5.2\libgcc.a(floatunsidf.o)
 .comment       0x00000000       0x3c ../../pic32/compiler/pic32-tools/bin/../lib/gcc/pic32mx/4.5.2\libgcc.a(extendsfdf2.o)
 .comment       0x00000000       0x3c ../../pic32/compiler/pic32-tools/bin/../lib/gcc/pic32mx/4.5.2\libgcc.a(truncdfsf2.o)
 .comment       0x00000000       0x3c ../../pic32/compiler/pic32-tools/bin/../lib/gcc/pic32mx/4.5.2/../../../../pic32mx/lib\libc.a(lib_a-assert.o)
 .comment       0x00000000       0x3c ../../pic32/compiler/pic32-tools/bin/../lib/gcc/pic32mx/4.5.2/../../../../pic32mx/lib\libc.a(lib_a-fiprintf.o)
 .comment       0x00000000       0x3c ../../pic32/compiler/pic32-tools/bin/../lib/gcc/pic32mx/4.5.2/../../../../pic32mx/lib\libc.a(lib_a-impure.o)
 .comment       0x00000000       0x3c ../../pic32/compiler/pic32-tools/bin/../lib/gcc/pic32mx/4.5.2/../../../../pic32mx/lib\libc.a(lib_a-printf.o)
 .comment       0x00000000       0x3c ../../pic32/compiler/pic32-tools/bin/../lib/gcc/pic32mx/4.5.2/../../../../pic32mx/lib\libc.a(lib_a-vfiprintf.o)
 .comment       0x00000000       0x3c ../../pic32/compiler/pic32-tools/bin/../lib/gcc/pic32mx/4.5.2/../../../../pic32mx/lib\libc.a(lib_a-vfprintf.o)
 .comment       0x00000000       0x3c ../../pic32/compiler/pic32-tools/bin/../lib/gcc/pic32mx/4.5.2/../../../../pic32mx/lib\libc.a(lib_a-wsetup.o)
 .comment       0x00000000       0x3c ../../pic32/compiler/pic32-tools/bin/../lib/gcc/pic32mx/4.5.2/../../../../pic32mx/lib\libc.a(lib_a-abort.o)
 .comment       0x00000000       0x3c ../../pic32/compiler/pic32-tools/bin/../lib/gcc/pic32mx/4.5.2/../../../../pic32mx/lib\libc.a(lib_a-dtoa.o)
 .comment       0x00000000       0x3c ../../pic32/compiler/pic32-tools/bin/../lib/gcc/pic32mx/4.5.2/../../../../pic32mx/lib\libc.a(lib_a-fflush.o)
 .comment       0x00000000       0x3c ../../pic32/compiler/pic32-tools/bin/../lib/gcc/pic32mx/4.5.2/../../../../pic32mx/lib\libc.a(lib_a-findfp.o)
 .comment       0x00000000       0x3c ../../pic32/compiler/pic32-tools/bin/../lib/gcc/pic32mx/4.5.2/../../../../pic32mx/lib\libc.a(lib_a-fputwc.o)
 .comment       0x00000000       0x3c ../../pic32/compiler/pic32-tools/bin/../lib/gcc/pic32mx/4.5.2/../../../../pic32mx/lib\libc.a(lib_a-freer.o)
 .comment       0x00000000       0x3c ../../pic32/compiler/pic32-tools/bin/../lib/gcc/pic32mx/4.5.2/../../../../pic32mx/lib\libc.a(lib_a-fvwrite.o)
 .comment       0x00000000       0x3c ../../pic32/compiler/pic32-tools/bin/../lib/gcc/pic32mx/4.5.2/../../../../pic32mx/lib\libc.a(lib_a-fwalk.o)
 .comment       0x00000000       0x3c ../../pic32/compiler/pic32-tools/bin/../lib/gcc/pic32mx/4.5.2/../../../../pic32mx/lib\libc.a(lib_a-locale.o)
 .comment       0x00000000       0x3c ../../pic32/compiler/pic32-tools/bin/../lib/gcc/pic32mx/4.5.2/../../../../pic32mx/lib\libc.a(lib_a-makebuf.o)
 .comment       0x00000000       0x3c ../../pic32/compiler/pic32-tools/bin/../lib/gcc/pic32mx/4.5.2/../../../../pic32mx/lib\libc.a(lib_a-mallocr.o)
 .comment       0x00000000       0x3c ../../pic32/compiler/pic32-tools/bin/../lib/gcc/pic32mx/4.5.2/../../../../pic32mx/lib\libc.a(lib_a-memchr.o)
 .comment       0x00000000       0x3c ../../pic32/compiler/pic32-tools/bin/../lib/gcc/pic32mx/4.5.2/../../../../pic32mx/lib\libc.a(lib_a-memcpy.o)
 .comment       0x00000000       0x3c ../../pic32/compiler/pic32-tools/bin/../lib/gcc/pic32mx/4.5.2/../../../../pic32mx/lib\libc.a(lib_a-memmove.o)
 .comment       0x00000000       0x3c ../../pic32/compiler/pic32-tools/bin/../lib/gcc/pic32mx/4.5.2/../../../../pic32mx/lib\libc.a(lib_a-memset.o)
 .comment       0x00000000       0x3c ../../pic32/compiler/pic32-tools/bin/../lib/gcc/pic32mx/4.5.2/../../../../pic32mx/lib\libc.a(lib_a-mlock.o)
 .comment       0x00000000       0x3c ../../pic32/compiler/pic32-tools/bin/../lib/gcc/pic32mx/4.5.2/../../../../pic32mx/lib\libc.a(lib_a-mprec.o)
 .comment       0x00000000       0x3c ../../pic32/compiler/pic32-tools/bin/../lib/gcc/pic32mx/4.5.2/../../../../pic32mx/lib\libc.a(lib_a-reallocr.o)
 .comment       0x00000000       0x3c ../../pic32/compiler/pic32-tools/bin/../lib/gcc/pic32mx/4.5.2/../../../../pic32mx/lib\libc.a(lib_a-sbrkr.o)
 .comment       0x00000000       0x3c ../../pic32/compiler/pic32-tools/bin/../lib/gcc/pic32mx/4.5.2/../../../../pic32mx/lib\libc.a(lib_a-s_fpclassify.o)
 .comment       0x00000000       0x3c ../../pic32/compiler/pic32-tools/bin/../lib/gcc/pic32mx/4.5.2/../../../../pic32mx/lib\libc.a(lib_a-signal.o)
 .comment       0x00000000       0x3c ../../pic32/compiler/pic32-tools/bin/../lib/gcc/pic32mx/4.5.2/../../../../pic32mx/lib\libc.a(lib_a-signalr.o)
 .comment       0x00000000       0x3c ../../pic32/compiler/pic32-tools/bin/../lib/gcc/pic32mx/4.5.2/../../../../pic32mx/lib\libc.a(lib_a-stdio.o)
 .comment       0x00000000       0x3c ../../pic32/compiler/pic32-tools/bin/../lib/gcc/pic32mx/4.5.2/../../../../pic32mx/lib\libc.a(lib_a-strcmp.o)
 .comment       0x00000000       0x3c ../../pic32/compiler/pic32-tools/bin/../lib/gcc/pic32mx/4.5.2/../../../../pic32mx/lib\libc.a(lib_a-strlen.o)
 .comment       0x00000000       0x3c ../../pic32/compiler/pic32-tools/bin/../lib/gcc/pic32mx/4.5.2/../../../../pic32mx/lib\libc.a(lib_a-wbuf.o)
 .comment       0x00000000       0x3c ../../pic32/compiler/pic32-tools/bin/../lib/gcc/pic32mx/4.5.2/../../../../pic32mx/lib\libc.a(lib_a-wcrtomb.o)
 .comment       0x00000000       0x3c ../../pic32/compiler/pic32-tools/bin/../lib/gcc/pic32mx/4.5.2/../../../../pic32mx/lib\libc.a(lib_a-wctomb_r.o)
 .comment       0x00000000       0x3c ../../pic32/compiler/pic32-tools/bin/../lib/gcc/pic32mx/4.5.2/../../../../pic32mx/lib\libc.a(lib_a-writer.o)
 .comment       0x00000000       0x3c ../../pic32/compiler/pic32-tools/bin/../lib/gcc/pic32mx/4.5.2/../../../../pic32mx/lib\libc.a(lib_a-callocr.o)
 .comment       0x00000000       0x3c ../../pic32/compiler/pic32-tools/bin/../lib/gcc/pic32mx/4.5.2/../../../../pic32mx/lib\libc.a(lib_a-closer.o)
 .comment       0x00000000       0x3c ../../pic32/compiler/pic32-tools/bin/../lib/gcc/pic32mx/4.5.2/../../../../pic32mx/lib\libc.a(lib_a-fclose.o)
 .comment       0x00000000       0x3c ../../pic32/compiler/pic32-tools/bin/../lib/gcc/pic32mx/4.5.2/../../../../pic32mx/lib\libc.a(lib_a-fstatr.o)
 .comment       0x00000000       0x3c ../../pic32/compiler/pic32-tools/bin/../lib/gcc/pic32mx/4.5.2/../../../../pic32mx/lib\libc.a(lib_a-isattyr.o)
 .comment       0x00000000       0x3c ../../pic32/compiler/pic32-tools/bin/../lib/gcc/pic32mx/4.5.2/../../../../pic32mx/lib\libc.a(lib_a-lseekr.o)
 .comment       0x00000000       0x3c ../../pic32/compiler/pic32-tools/bin/../lib/gcc/pic32mx/4.5.2/../../../../pic32mx/lib\libc.a(lib_a-readr.o)
 .comment       0x00000000       0x3c ../../pic32/compiler/pic32-tools/bin/../lib/gcc/pic32mx/4.5.2/../../../../pic32mx/lib\libc.a(lib_a-reent.o)
 .comment       0x0000003b       0x4b ../../pic32/compiler/pic32-tools/bin/../lib/gcc/pic32mx/4.5.2/../../../../pic32mx/lib\libpic32.a(sbrk.o)
                                 0x87 (size before relaxing)
 .comment       0x00000000       0x3c ../../pic32/compiler/pic32-tools/bin/../lib/gcc/pic32mx/4.5.2/../../../../pic32mx/lib\libpic32.a(default-bootstrap-exception-handler.o)
 .comment       0x00000000       0x3c ../../pic32/compiler/pic32-tools/bin/../lib/gcc/pic32mx/4.5.2/../../../../pic32mx/lib\libpic32.a(default-on-reset.o)
 .comment       0x00000000       0x3c ../../pic32/compiler/pic32-tools/bin/../lib/gcc/pic32mx/4.5.2/../../../../pic32mx/lib\libpic32.a(default-on-bootstrap.o)
 .comment       0x00000000       0x3c ../../pic32/compiler/pic32-tools/bin/../lib/gcc/pic32mx/4.5.2/../../../../pic32mx/lib\libpic32.a(_exit.o)
 .comment       0x00000086       0x4e ../../pic32/compiler/pic32-tools/bin/../lib/gcc/pic32mx/4.5.2/../../../../pic32mx/lib\libpic32.a(isatty.o)
                                 0x8a (size before relaxing)
 .comment       0x00000000       0x3c ../../pic32/compiler/pic32-tools/bin/../lib/gcc/pic32mx/4.5.2/../../../../pic32mx/lib\libpic32.a(read.o)
 .comment       0x00000000       0x3c ../../pic32/compiler/pic32-tools/bin/../lib/gcc/pic32mx/4.5.2/../../../../pic32mx/lib\libpic32.a(write.o)
 .comment       0x00000000       0x3c ../../pic32/compiler/pic32-tools/bin/../lib/gcc/pic32mx/4.5.2/../../../../pic32mx/lib\libpic32.a(lseek.o)
 .comment       0x00000000       0x3c ../../pic32/compiler/pic32-tools/bin/../lib/gcc/pic32mx/4.5.2/../../../../pic32mx/lib\libpic32.a(close.o)
 .comment       0x00000000       0x3c ../../pic32/compiler/pic32-tools/bin/../lib/gcc/pic32mx/4.5.2/../../../../pic32mx/lib\libpic32.a(fstat.o)
 .comment       0x00000000       0x3c ../../pic32/compiler/pic32-tools/bin/../lib/gcc/pic32mx/4.5.2/../../../../pic32mx/lib\libpic32.a(kill.o)
 .comment       0x00000000       0x3c ../../pic32/compiler/pic32-tools/bin/../lib/gcc/pic32mx/4.5.2/../../../../pic32mx/lib\libpic32.a(getpid.o)
 .comment       0x00000000       0x3c ../../pic32/compiler/pic32-tools/bin/../lib/gcc/pic32mx/4.5.2/../../../../pic32mx/lib\libpic32.a(xc32_uart.o)
 .comment       0x00000000       0x3c ../../pic32/compiler/pic32-tools/bin/../lib/gcc/pic32mx/4.5.2/../../../../pic32mx/lib\libpic32.a(_mon_putc.o)
 .comment       0x00000000       0x3c ../../pic32/compiler/pic32-tools/bin/../lib/gcc/pic32mx/4.5.2/../../../../pic32mx/lib\libpic32.a(defaultinterrupt.o)
 .comment       0x00000000       0x3c ../../pic32/compiler/pic32-tools/bin/../lib/gcc/pic32mx/4.5.2\libgcc.a(_udivdi3.o)
 .comment       0x00000000       0x3c ../../pic32/compiler/pic32-tools/bin/../lib/gcc/pic32mx/4.5.2\libgcc.a(_umoddi3.o)
 .comment       0x00000000       0x3c ../../pic32/compiler/pic32-tools/bin/../lib/gcc/pic32mx/4.5.2\libgcc.a(ledf2.o)
 .comment       0x000000d4       0x3c ../../pic32/compiler/pic32-tools/bin/../lib/gcc/pic32mx/4.5.2/../../../../pic32mx/lib\libmchp_peripheral_32MX250F128B.a(osc_config_lib.o)
                                 0x3d (size before relaxing)
 .comment       0x00000000       0x3d ../../pic32/compiler/pic32-tools/bin/../lib/gcc/pic32mx/4.5.2/../../../../pic32mx/lib\libmchp_peripheral_32MX250F128B.a(int_disable_interrupts_lib.o)
 .comment       0x00000000       0x3d ../../pic32/compiler/pic32-tools/bin/../lib/gcc/pic32mx/4.5.2/../../../../pic32mx/lib\libmchp_peripheral_32MX250F128B.a(int_restore_interrupts_lib.o)
 .comment       0x00000000       0x3d ../../pic32/compiler/pic32-tools/bin/../lib/gcc/pic32mx/4.5.2/../../../../pic32mx/lib\libmchp_peripheral_32MX250F128B.a(spi_getc_spi2_lib_legacy.o)
 .comment       0x00000000       0x3d ../../pic32/compiler/pic32-tools/bin/../lib/gcc/pic32mx/4.5.2/../../../../pic32mx/lib\libmchp_peripheral_32MX250F128B.a(spi_open_spi2_lib_legacy.o)
 .comment       0x00000000       0x3d ../../pic32/compiler/pic32-tools/bin/../lib/gcc/pic32mx/4.5.2/../../../../pic32mx/lib\libmchp_peripheral_32MX250F128B.a(spi_brg_tbl_lib_legacy.o)
 .comment       0x00000000       0x3d ../../pic32/compiler/pic32-tools/bin/../lib/gcc/pic32mx/4.5.2/../../../../pic32mx/lib\libmchp_peripheral_32MX250F128B.a(dma_chn_clr_ev_flags_lib.o)
 .comment       0x00000000       0x3d ../../pic32/compiler/pic32-tools/bin/../lib/gcc/pic32mx/4.5.2/../../../../pic32mx/lib\libmchp_peripheral_32MX250F128B.a(dma_chn_open_lib.o)
 .comment       0x00000000       0x3d ../../pic32/compiler/pic32-tools/bin/../lib/gcc/pic32mx/4.5.2/../../../../pic32mx/lib\libmchp_peripheral_32MX250F128B.a(dma_chn_enable_lib.o)
 .comment       0x00000000       0x3d ../../pic32/compiler/pic32-tools/bin/../lib/gcc/pic32mx/4.5.2/../../../../pic32mx/lib\libmchp_peripheral_32MX250F128B.a(dma_chn_get_ev_flags_lib.o)
 .comment       0x00000000       0x3d ../../pic32/compiler/pic32-tools/bin/../lib/gcc/pic32mx/4.5.2/../../../../pic32mx/lib\libmchp_peripheral_32MX250F128B.a(dma_chn_write_event_control_flags_lib.o)
 .comment       0x00000000       0x3d ../../pic32/compiler/pic32-tools/bin/../lib/gcc/pic32mx/4.5.2/../../../../pic32mx/lib\libmchp_peripheral_32MX250F128B.a(dma_chn_set_txfer_lib.o)
 .comment       0x00000000       0x3d ../../pic32/compiler/pic32-tools/bin/../lib/gcc/pic32mx/4.5.2/../../../../pic32mx/lib\libmchp_peripheral_32MX250F128B.a(dma_chn_start_txfer_lib.o)
 .comment       0x00000000       0x3d ../../pic32/compiler/pic32-tools/bin/../lib/gcc/pic32mx/4.5.2/../../../../pic32mx/lib\libmchp_peripheral_32MX250F128B.a(dma_reg_map_tbl_lib.o)
 .comment       0x00000000       0x3d ../../pic32/compiler/pic32-tools/bin/../lib/gcc/pic32mx/4.5.2/../../../../pic32mx/lib\libmchp_peripheral_32MX250F128B.a(int_tbl_lib.o)
 .comment       0x00000000       0x3c ../../pic32/compiler/pic32-tools/bin/../lib/gcc/pic32mx/4.5.2/../../../../pic32mx/lib\libc.a(lib_a-errno.o)

.debug
 *(.debug)

.line
 *(.line)

.debug_srcinfo
 *(.debug_srcinfo)

.debug_sfnames
 *(.debug_sfnames)

.debug_aranges  0x00000000      0x670
 *(.debug_aranges)
 .debug_aranges
                0x00000000       0x20 obj/ff.o
 .debug_aranges
                0x00000020       0x20 obj/mmc_xmega.o
 .debug_aranges
                0x00000040       0x20 obj/graphicdraw.o
 .debug_aranges
                0x00000060       0x20 obj/matrix4.o
 .debug_aranges
                0x00000080       0x20 obj/maze.o
 .debug_aranges
                0x000000a0       0x20 obj/newmain.o
 .debug_aranges
                0x000000c0       0x20 obj/triangle.o
 .debug_aranges
                0x000000e0       0x20 obj/vector2.o
 .debug_aranges
                0x00000100       0x20 obj/vector3.o
 .debug_aranges
                0x00000120       0x28 obj/crti.o
 .debug_aranges
                0x00000148       0x28 obj/crtn.o
 .debug_aranges
                0x00000170       0x40 obj/crt0.o
 .debug_aranges
                0x000001b0       0x20 ../../pic32/compiler/pic32-tools/bin/../lib/gcc/pic32mx/4.5.2\libgcc.a(_divdi3.o)
 .debug_aranges
                0x000001d0       0x20 ../../pic32/compiler/pic32-tools/bin/../lib/gcc/pic32mx/4.5.2\libgcc.a(addsf3.o)
 .debug_aranges
                0x000001f0       0x20 ../../pic32/compiler/pic32-tools/bin/../lib/gcc/pic32mx/4.5.2\libgcc.a(eqsf2.o)
 .debug_aranges
                0x00000210       0x20 ../../pic32/compiler/pic32-tools/bin/../lib/gcc/pic32mx/4.5.2\libgcc.a(gesf2.o)
 .debug_aranges
                0x00000230       0x20 ../../pic32/compiler/pic32-tools/bin/../lib/gcc/pic32mx/4.5.2\libgcc.a(mulsf3.o)
 .debug_aranges
                0x00000250       0x20 ../../pic32/compiler/pic32-tools/bin/../lib/gcc/pic32mx/4.5.2\libgcc.a(subsf3.o)
 .debug_aranges
                0x00000270       0x20 ../../pic32/compiler/pic32-tools/bin/../lib/gcc/pic32mx/4.5.2\libgcc.a(fixsfsi.o)
 .debug_aranges
                0x00000290       0x20 ../../pic32/compiler/pic32-tools/bin/../lib/gcc/pic32mx/4.5.2\libgcc.a(floatsisf.o)
 .debug_aranges
                0x000002b0       0x20 ../../pic32/compiler/pic32-tools/bin/../lib/gcc/pic32mx/4.5.2\libgcc.a(floatunsisf.o)
 .debug_aranges
                0x000002d0       0x20 ../../pic32/compiler/pic32-tools/bin/../lib/gcc/pic32mx/4.5.2\libgcc.a(adddf3.o)
 .debug_aranges
                0x000002f0       0x20 ../../pic32/compiler/pic32-tools/bin/../lib/gcc/pic32mx/4.5.2\libgcc.a(divdf3.o)
 .debug_aranges
                0x00000310       0x20 ../../pic32/compiler/pic32-tools/bin/../lib/gcc/pic32mx/4.5.2\libgcc.a(eqdf2.o)
 .debug_aranges
                0x00000330       0x20 ../../pic32/compiler/pic32-tools/bin/../lib/gcc/pic32mx/4.5.2\libgcc.a(gedf2.o)
 .debug_aranges
                0x00000350       0x20 ../../pic32/compiler/pic32-tools/bin/../lib/gcc/pic32mx/4.5.2\libgcc.a(muldf3.o)
 .debug_aranges
                0x00000370       0x20 ../../pic32/compiler/pic32-tools/bin/../lib/gcc/pic32mx/4.5.2\libgcc.a(subdf3.o)
 .debug_aranges
                0x00000390       0x20 ../../pic32/compiler/pic32-tools/bin/../lib/gcc/pic32mx/4.5.2\libgcc.a(fixdfsi.o)
 .debug_aranges
                0x000003b0       0x20 ../../pic32/compiler/pic32-tools/bin/../lib/gcc/pic32mx/4.5.2\libgcc.a(floatsidf.o)
 .debug_aranges
                0x000003d0       0x20 ../../pic32/compiler/pic32-tools/bin/../lib/gcc/pic32mx/4.5.2\libgcc.a(floatunsidf.o)
 .debug_aranges
                0x000003f0       0x20 ../../pic32/compiler/pic32-tools/bin/../lib/gcc/pic32mx/4.5.2\libgcc.a(extendsfdf2.o)
 .debug_aranges
                0x00000410       0x20 ../../pic32/compiler/pic32-tools/bin/../lib/gcc/pic32mx/4.5.2\libgcc.a(truncdfsf2.o)
 .debug_aranges
                0x00000430       0x20 ../../pic32/compiler/pic32-tools/bin/../lib/gcc/pic32mx/4.5.2\libgcc.a(_udivdi3.o)
 .debug_aranges
                0x00000450       0x20 ../../pic32/compiler/pic32-tools/bin/../lib/gcc/pic32mx/4.5.2\libgcc.a(_umoddi3.o)
 .debug_aranges
                0x00000470       0x20 ../../pic32/compiler/pic32-tools/bin/../lib/gcc/pic32mx/4.5.2\libgcc.a(ledf2.o)
 .debug_aranges
                0x00000490       0x20 ../../pic32/compiler/pic32-tools/bin/../lib/gcc/pic32mx/4.5.2/../../../../pic32mx/lib\libmchp_peripheral_32MX250F128B.a(osc_config_lib.o)
 .debug_aranges
                0x000004b0       0x20 ../../pic32/compiler/pic32-tools/bin/../lib/gcc/pic32mx/4.5.2/../../../../pic32mx/lib\libmchp_peripheral_32MX250F128B.a(int_disable_interrupts_lib.o)
 .debug_aranges
                0x000004d0       0x20 ../../pic32/compiler/pic32-tools/bin/../lib/gcc/pic32mx/4.5.2/../../../../pic32mx/lib\libmchp_peripheral_32MX250F128B.a(int_restore_interrupts_lib.o)
 .debug_aranges
                0x000004f0       0x20 ../../pic32/compiler/pic32-tools/bin/../lib/gcc/pic32mx/4.5.2/../../../../pic32mx/lib\libmchp_peripheral_32MX250F128B.a(spi_getc_spi2_lib_legacy.o)
 .debug_aranges
                0x00000510       0x20 ../../pic32/compiler/pic32-tools/bin/../lib/gcc/pic32mx/4.5.2/../../../../pic32mx/lib\libmchp_peripheral_32MX250F128B.a(spi_open_spi2_lib_legacy.o)
 .debug_aranges
                0x00000530       0x20 ../../pic32/compiler/pic32-tools/bin/../lib/gcc/pic32mx/4.5.2/../../../../pic32mx/lib\libmchp_peripheral_32MX250F128B.a(dma_chn_clr_ev_flags_lib.o)
 .debug_aranges
                0x00000550       0x20 ../../pic32/compiler/pic32-tools/bin/../lib/gcc/pic32mx/4.5.2/../../../../pic32mx/lib\libmchp_peripheral_32MX250F128B.a(dma_chn_open_lib.o)
 .debug_aranges
                0x00000570       0x20 ../../pic32/compiler/pic32-tools/bin/../lib/gcc/pic32mx/4.5.2/../../../../pic32mx/lib\libmchp_peripheral_32MX250F128B.a(dma_chn_enable_lib.o)
 .debug_aranges
                0x00000590       0x20 ../../pic32/compiler/pic32-tools/bin/../lib/gcc/pic32mx/4.5.2/../../../../pic32mx/lib\libmchp_peripheral_32MX250F128B.a(dma_chn_get_ev_flags_lib.o)
 .debug_aranges
                0x000005b0       0x20 ../../pic32/compiler/pic32-tools/bin/../lib/gcc/pic32mx/4.5.2/../../../../pic32mx/lib\libmchp_peripheral_32MX250F128B.a(dma_chn_write_event_control_flags_lib.o)
 .debug_aranges
                0x000005d0       0x20 ../../pic32/compiler/pic32-tools/bin/../lib/gcc/pic32mx/4.5.2/../../../../pic32mx/lib\libmchp_peripheral_32MX250F128B.a(dma_chn_set_txfer_lib.o)
 .debug_aranges
                0x000005f0       0x20 ../../pic32/compiler/pic32-tools/bin/../lib/gcc/pic32mx/4.5.2/../../../../pic32mx/lib\libmchp_peripheral_32MX250F128B.a(dma_chn_start_txfer_lib.o)
 .debug_aranges
                0x00000610       0x60 ../../pic32/compiler/pic32-tools/bin/../lib/gcc/pic32mx/4.5.2/../../../../pic32mx/lib\libmchp_peripheral_32MX250F128B.a(int_tbl_lib.o)

.debug_pubnames
                0x00000000      0xbd4
 *(.debug_pubnames)
 .debug_pubnames
                0x00000000       0xef obj/ff.o
 .debug_pubnames
                0x000000ef       0x9e obj/mmc_xmega.o
 .debug_pubnames
                0x0000018d      0x1a1 obj/graphicdraw.o
 .debug_pubnames
                0x0000032e       0x1c obj/graphiclib.o
 .debug_pubnames
                0x0000034a       0x7f obj/matrix4.o
 .debug_pubnames
                0x000003c9       0xa4 obj/maze.o
 .debug_pubnames
                0x0000046d       0x51 obj/newmain.o
 .debug_pubnames
                0x000004be       0x68 obj/triangle.o
 .debug_pubnames
                0x00000526      0x11b obj/vector2.o
 .debug_pubnames
                0x00000641       0x23 obj/vector3.o
 .debug_pubnames
                0x00000664       0x1f ../../pic32/compiler/pic32-tools/bin/../lib/gcc/pic32mx/4.5.2\libgcc.a(_divdi3.o)
 .debug_pubnames
                0x00000683       0x1f ../../pic32/compiler/pic32-tools/bin/../lib/gcc/pic32mx/4.5.2\libgcc.a(addsf3.o)
 .debug_pubnames
                0x000006a2       0x1e ../../pic32/compiler/pic32-tools/bin/../lib/gcc/pic32mx/4.5.2\libgcc.a(eqsf2.o)
 .debug_pubnames
                0x000006c0       0x1e ../../pic32/compiler/pic32-tools/bin/../lib/gcc/pic32mx/4.5.2\libgcc.a(gesf2.o)
 .debug_pubnames
                0x000006de       0x1f ../../pic32/compiler/pic32-tools/bin/../lib/gcc/pic32mx/4.5.2\libgcc.a(mulsf3.o)
 .debug_pubnames
                0x000006fd       0x1f ../../pic32/compiler/pic32-tools/bin/../lib/gcc/pic32mx/4.5.2\libgcc.a(subsf3.o)
 .debug_pubnames
                0x0000071c       0x20 ../../pic32/compiler/pic32-tools/bin/../lib/gcc/pic32mx/4.5.2\libgcc.a(fixsfsi.o)
 .debug_pubnames
                0x0000073c       0x22 ../../pic32/compiler/pic32-tools/bin/../lib/gcc/pic32mx/4.5.2\libgcc.a(floatsisf.o)
 .debug_pubnames
                0x0000075e       0x24 ../../pic32/compiler/pic32-tools/bin/../lib/gcc/pic32mx/4.5.2\libgcc.a(floatunsisf.o)
 .debug_pubnames
                0x00000782       0x1f ../../pic32/compiler/pic32-tools/bin/../lib/gcc/pic32mx/4.5.2\libgcc.a(adddf3.o)
 .debug_pubnames
                0x000007a1       0x1f ../../pic32/compiler/pic32-tools/bin/../lib/gcc/pic32mx/4.5.2\libgcc.a(divdf3.o)
 .debug_pubnames
                0x000007c0       0x1e ../../pic32/compiler/pic32-tools/bin/../lib/gcc/pic32mx/4.5.2\libgcc.a(eqdf2.o)
 .debug_pubnames
                0x000007de       0x1e ../../pic32/compiler/pic32-tools/bin/../lib/gcc/pic32mx/4.5.2\libgcc.a(gedf2.o)
 .debug_pubnames
                0x000007fc       0x1f ../../pic32/compiler/pic32-tools/bin/../lib/gcc/pic32mx/4.5.2\libgcc.a(muldf3.o)
 .debug_pubnames
                0x0000081b       0x1f ../../pic32/compiler/pic32-tools/bin/../lib/gcc/pic32mx/4.5.2\libgcc.a(subdf3.o)
 .debug_pubnames
                0x0000083a       0x20 ../../pic32/compiler/pic32-tools/bin/../lib/gcc/pic32mx/4.5.2\libgcc.a(fixdfsi.o)
 .debug_pubnames
                0x0000085a       0x22 ../../pic32/compiler/pic32-tools/bin/../lib/gcc/pic32mx/4.5.2\libgcc.a(floatsidf.o)
 .debug_pubnames
                0x0000087c       0x24 ../../pic32/compiler/pic32-tools/bin/../lib/gcc/pic32mx/4.5.2\libgcc.a(floatunsidf.o)
 .debug_pubnames
                0x000008a0       0x24 ../../pic32/compiler/pic32-tools/bin/../lib/gcc/pic32mx/4.5.2\libgcc.a(extendsfdf2.o)
 .debug_pubnames
                0x000008c4       0x23 ../../pic32/compiler/pic32-tools/bin/../lib/gcc/pic32mx/4.5.2\libgcc.a(truncdfsf2.o)
 .debug_pubnames
                0x000008e7       0x20 ../../pic32/compiler/pic32-tools/bin/../lib/gcc/pic32mx/4.5.2\libgcc.a(_udivdi3.o)
 .debug_pubnames
                0x00000907       0x20 ../../pic32/compiler/pic32-tools/bin/../lib/gcc/pic32mx/4.5.2\libgcc.a(_umoddi3.o)
 .debug_pubnames
                0x00000927       0x1e ../../pic32/compiler/pic32-tools/bin/../lib/gcc/pic32mx/4.5.2\libgcc.a(ledf2.o)
 .debug_pubnames
                0x00000945       0x20 ../../pic32/compiler/pic32-tools/bin/../lib/gcc/pic32mx/4.5.2/../../../../pic32mx/lib\libmchp_peripheral_32MX250F128B.a(osc_config_lib.o)
 .debug_pubnames
                0x00000965       0x2b ../../pic32/compiler/pic32-tools/bin/../lib/gcc/pic32mx/4.5.2/../../../../pic32mx/lib\libmchp_peripheral_32MX250F128B.a(int_disable_interrupts_lib.o)
 .debug_pubnames
                0x00000990       0x2b ../../pic32/compiler/pic32-tools/bin/../lib/gcc/pic32mx/4.5.2/../../../../pic32mx/lib\libmchp_peripheral_32MX250F128B.a(int_restore_interrupts_lib.o)
 .debug_pubnames
                0x000009bb       0x1f ../../pic32/compiler/pic32-tools/bin/../lib/gcc/pic32mx/4.5.2/../../../../pic32mx/lib\libmchp_peripheral_32MX250F128B.a(spi_getc_spi2_lib_legacy.o)
 .debug_pubnames
                0x000009da       0x1f ../../pic32/compiler/pic32-tools/bin/../lib/gcc/pic32mx/4.5.2/../../../../pic32mx/lib\libmchp_peripheral_32MX250F128B.a(spi_open_spi2_lib_legacy.o)
 .debug_pubnames
                0x000009f9       0x27 ../../pic32/compiler/pic32-tools/bin/../lib/gcc/pic32mx/4.5.2/../../../../pic32mx/lib\libmchp_peripheral_32MX250F128B.a(dma_chn_clr_ev_flags_lib.o)
 .debug_pubnames
                0x00000a20       0x21 ../../pic32/compiler/pic32-tools/bin/../lib/gcc/pic32mx/4.5.2/../../../../pic32mx/lib\libmchp_peripheral_32MX250F128B.a(dma_chn_open_lib.o)
 .debug_pubnames
                0x00000a41       0x23 ../../pic32/compiler/pic32-tools/bin/../lib/gcc/pic32mx/4.5.2/../../../../pic32mx/lib\libmchp_peripheral_32MX250F128B.a(dma_chn_enable_lib.o)
 .debug_pubnames
                0x00000a64       0x27 ../../pic32/compiler/pic32-tools/bin/../lib/gcc/pic32mx/4.5.2/../../../../pic32mx/lib\libmchp_peripheral_32MX250F128B.a(dma_chn_get_ev_flags_lib.o)
 .debug_pubnames
                0x00000a8b       0x33 ../../pic32/compiler/pic32-tools/bin/../lib/gcc/pic32mx/4.5.2/../../../../pic32mx/lib\libmchp_peripheral_32MX250F128B.a(dma_chn_write_event_control_flags_lib.o)
 .debug_pubnames
                0x00000abe       0x25 ../../pic32/compiler/pic32-tools/bin/../lib/gcc/pic32mx/4.5.2/../../../../pic32mx/lib\libmchp_peripheral_32MX250F128B.a(dma_chn_set_txfer_lib.o)
 .debug_pubnames
                0x00000ae3       0x27 ../../pic32/compiler/pic32-tools/bin/../lib/gcc/pic32mx/4.5.2/../../../../pic32mx/lib\libmchp_peripheral_32MX250F128B.a(dma_chn_start_txfer_lib.o)
 .debug_pubnames
                0x00000b0a       0xca ../../pic32/compiler/pic32-tools/bin/../lib/gcc/pic32mx/4.5.2/../../../../pic32mx/lib\libmchp_peripheral_32MX250F128B.a(int_tbl_lib.o)

.debug_info     0x00000000    0x14c88
 *(.debug_info .gnu.linkonce.wi.*)
 .debug_info    0x00000000     0x227d obj/ff.o
 .debug_info    0x0000227d     0x1f10 obj/mmc_xmega.o
 .debug_info    0x0000418d     0x1bcd obj/graphicdraw.o
 .debug_info    0x00005d5a      0x1c5 obj/graphiclib.o
 .debug_info    0x00005f1f      0xf66 obj/matrix4.o
 .debug_info    0x00006e85     0x1d12 obj/maze.o
 .debug_info    0x00008b97     0x3008 obj/newmain.o
 .debug_info    0x0000bb9f     0x144d obj/triangle.o
 .debug_info    0x0000cfec      0x6ee obj/vector2.o
 .debug_info    0x0000d6da      0x426 obj/vector3.o
 .debug_info    0x0000db00       0x75 obj/crti.o
 .debug_info    0x0000db75       0x75 obj/crtn.o
 .debug_info    0x0000dbea       0x8a obj/crt0.o
 .debug_info    0x0000dc74      0x7b2 ../../pic32/compiler/pic32-tools/bin/../lib/gcc/pic32mx/4.5.2\libgcc.a(_divdi3.o)
 .debug_info    0x0000e426      0x42d ../../pic32/compiler/pic32-tools/bin/../lib/gcc/pic32mx/4.5.2\libgcc.a(addsf3.o)
 .debug_info    0x0000e853      0x2fa ../../pic32/compiler/pic32-tools/bin/../lib/gcc/pic32mx/4.5.2\libgcc.a(eqsf2.o)
 .debug_info    0x0000eb4d      0x338 ../../pic32/compiler/pic32-tools/bin/../lib/gcc/pic32mx/4.5.2\libgcc.a(gesf2.o)
 .debug_info    0x0000ee85      0x40f ../../pic32/compiler/pic32-tools/bin/../lib/gcc/pic32mx/4.5.2\libgcc.a(mulsf3.o)
 .debug_info    0x0000f294      0x42d ../../pic32/compiler/pic32-tools/bin/../lib/gcc/pic32mx/4.5.2\libgcc.a(subsf3.o)
 .debug_info    0x0000f6c1      0x2e3 ../../pic32/compiler/pic32-tools/bin/../lib/gcc/pic32mx/4.5.2\libgcc.a(fixsfsi.o)
 .debug_info    0x0000f9a4      0x315 ../../pic32/compiler/pic32-tools/bin/../lib/gcc/pic32mx/4.5.2\libgcc.a(floatsisf.o)
 .debug_info    0x0000fcb9      0x305 ../../pic32/compiler/pic32-tools/bin/../lib/gcc/pic32mx/4.5.2\libgcc.a(floatunsisf.o)
 .debug_info    0x0000ffbe      0x621 ../../pic32/compiler/pic32-tools/bin/../lib/gcc/pic32mx/4.5.2\libgcc.a(adddf3.o)
 .debug_info    0x000105df      0x68c ../../pic32/compiler/pic32-tools/bin/../lib/gcc/pic32mx/4.5.2\libgcc.a(divdf3.o)
 .debug_info    0x00010c6b      0x328 ../../pic32/compiler/pic32-tools/bin/../lib/gcc/pic32mx/4.5.2\libgcc.a(eqdf2.o)
 .debug_info    0x00010f93      0x366 ../../pic32/compiler/pic32-tools/bin/../lib/gcc/pic32mx/4.5.2\libgcc.a(gedf2.o)
 .debug_info    0x000112f9      0x5d7 ../../pic32/compiler/pic32-tools/bin/../lib/gcc/pic32mx/4.5.2\libgcc.a(muldf3.o)
 .debug_info    0x000118d0      0x621 ../../pic32/compiler/pic32-tools/bin/../lib/gcc/pic32mx/4.5.2\libgcc.a(subdf3.o)
 .debug_info    0x00011ef1      0x30c ../../pic32/compiler/pic32-tools/bin/../lib/gcc/pic32mx/4.5.2\libgcc.a(fixdfsi.o)
 .debug_info    0x000121fd      0x339 ../../pic32/compiler/pic32-tools/bin/../lib/gcc/pic32mx/4.5.2\libgcc.a(floatsidf.o)
 .debug_info    0x00012536      0x324 ../../pic32/compiler/pic32-tools/bin/../lib/gcc/pic32mx/4.5.2\libgcc.a(floatunsidf.o)
 .debug_info    0x0001285a      0x3c6 ../../pic32/compiler/pic32-tools/bin/../lib/gcc/pic32mx/4.5.2\libgcc.a(extendsfdf2.o)
 .debug_info    0x00012c20      0x3a5 ../../pic32/compiler/pic32-tools/bin/../lib/gcc/pic32mx/4.5.2\libgcc.a(truncdfsf2.o)
 .debug_info    0x00012fc5      0x779 ../../pic32/compiler/pic32-tools/bin/../lib/gcc/pic32mx/4.5.2\libgcc.a(_udivdi3.o)
 .debug_info    0x0001373e      0x7ca ../../pic32/compiler/pic32-tools/bin/../lib/gcc/pic32mx/4.5.2\libgcc.a(_umoddi3.o)
 .debug_info    0x00013f08      0x366 ../../pic32/compiler/pic32-tools/bin/../lib/gcc/pic32mx/4.5.2\libgcc.a(ledf2.o)
 .debug_info    0x0001426e       0xc0 ../../pic32/compiler/pic32-tools/bin/../lib/gcc/pic32mx/4.5.2/../../../../pic32mx/lib\libmchp_peripheral_32MX250F128B.a(osc_config_lib.o)
 .debug_info    0x0001432e       0xb6 ../../pic32/compiler/pic32-tools/bin/../lib/gcc/pic32mx/4.5.2/../../../../pic32mx/lib\libmchp_peripheral_32MX250F128B.a(int_disable_interrupts_lib.o)
 .debug_info    0x000143e4       0xb6 ../../pic32/compiler/pic32-tools/bin/../lib/gcc/pic32mx/4.5.2/../../../../pic32mx/lib\libmchp_peripheral_32MX250F128B.a(int_restore_interrupts_lib.o)
 .debug_info    0x0001449a       0xa8 ../../pic32/compiler/pic32-tools/bin/../lib/gcc/pic32mx/4.5.2/../../../../pic32mx/lib\libmchp_peripheral_32MX250F128B.a(spi_getc_spi2_lib_legacy.o)
 .debug_info    0x00014542       0xa8 ../../pic32/compiler/pic32-tools/bin/../lib/gcc/pic32mx/4.5.2/../../../../pic32mx/lib\libmchp_peripheral_32MX250F128B.a(spi_open_spi2_lib_legacy.o)
 .debug_info    0x000145ea        0x0 ../../pic32/compiler/pic32-tools/bin/../lib/gcc/pic32mx/4.5.2/../../../../pic32mx/lib\libmchp_peripheral_32MX250F128B.a(spi_brg_tbl_lib_legacy.o)
 .debug_info    0x000145ea       0xb0 ../../pic32/compiler/pic32-tools/bin/../lib/gcc/pic32mx/4.5.2/../../../../pic32mx/lib\libmchp_peripheral_32MX250F128B.a(dma_chn_clr_ev_flags_lib.o)
 .debug_info    0x0001469a       0xb5 ../../pic32/compiler/pic32-tools/bin/../lib/gcc/pic32mx/4.5.2/../../../../pic32mx/lib\libmchp_peripheral_32MX250F128B.a(dma_chn_open_lib.o)
 .debug_info    0x0001474f       0xa6 ../../pic32/compiler/pic32-tools/bin/../lib/gcc/pic32mx/4.5.2/../../../../pic32mx/lib\libmchp_peripheral_32MX250F128B.a(dma_chn_enable_lib.o)
 .debug_info    0x000147f5       0xb0 ../../pic32/compiler/pic32-tools/bin/../lib/gcc/pic32mx/4.5.2/../../../../pic32mx/lib\libmchp_peripheral_32MX250F128B.a(dma_chn_get_ev_flags_lib.o)
 .debug_info    0x000148a5       0xc9 ../../pic32/compiler/pic32-tools/bin/../lib/gcc/pic32mx/4.5.2/../../../../pic32mx/lib\libmchp_peripheral_32MX250F128B.a(dma_chn_write_event_control_flags_lib.o)
 .debug_info    0x0001496e       0xbc ../../pic32/compiler/pic32-tools/bin/../lib/gcc/pic32mx/4.5.2/../../../../pic32mx/lib\libmchp_peripheral_32MX250F128B.a(dma_chn_set_txfer_lib.o)
 .debug_info    0x00014a2a       0xc8 ../../pic32/compiler/pic32-tools/bin/../lib/gcc/pic32mx/4.5.2/../../../../pic32mx/lib\libmchp_peripheral_32MX250F128B.a(dma_chn_start_txfer_lib.o)
 .debug_info    0x00014af2        0x0 ../../pic32/compiler/pic32-tools/bin/../lib/gcc/pic32mx/4.5.2/../../../../pic32mx/lib\libmchp_peripheral_32MX250F128B.a(dma_reg_map_tbl_lib.o)
 .debug_info    0x00014af2      0x196 ../../pic32/compiler/pic32-tools/bin/../lib/gcc/pic32mx/4.5.2/../../../../pic32mx/lib\libmchp_peripheral_32MX250F128B.a(int_tbl_lib.o)

.debug_abbrev   0x00000000     0x2fb3
 *(.debug_abbrev)
 .debug_abbrev  0x00000000      0x1fe obj/ff.o
 .debug_abbrev  0x000001fe      0x36c obj/mmc_xmega.o
 .debug_abbrev  0x0000056a      0x301 obj/graphicdraw.o
 .debug_abbrev  0x0000086b       0x65 obj/graphiclib.o
 .debug_abbrev  0x000008d0      0x248 obj/matrix4.o
 .debug_abbrev  0x00000b18      0x31f obj/maze.o
 .debug_abbrev  0x00000e37      0x47b obj/newmain.o
 .debug_abbrev  0x000012b2      0x2ab obj/triangle.o
 .debug_abbrev  0x0000155d      0x1c4 obj/vector2.o
 .debug_abbrev  0x00001721      0x133 obj/vector3.o
 .debug_abbrev  0x00001854       0x12 obj/crti.o
 .debug_abbrev  0x00001866       0x12 obj/crtn.o
 .debug_abbrev  0x00001878       0x12 obj/crt0.o
 .debug_abbrev  0x0000188a      0x141 ../../pic32/compiler/pic32-tools/bin/../lib/gcc/pic32mx/4.5.2\libgcc.a(_divdi3.o)
 .debug_abbrev  0x000019cb       0xde ../../pic32/compiler/pic32-tools/bin/../lib/gcc/pic32mx/4.5.2\libgcc.a(addsf3.o)
 .debug_abbrev  0x00001aa9       0xe0 ../../pic32/compiler/pic32-tools/bin/../lib/gcc/pic32mx/4.5.2\libgcc.a(eqsf2.o)
 .debug_abbrev  0x00001b89       0xe0 ../../pic32/compiler/pic32-tools/bin/../lib/gcc/pic32mx/4.5.2\libgcc.a(gesf2.o)
 .debug_abbrev  0x00001c69       0xd1 ../../pic32/compiler/pic32-tools/bin/../lib/gcc/pic32mx/4.5.2\libgcc.a(mulsf3.o)
 .debug_abbrev  0x00001d3a       0xde ../../pic32/compiler/pic32-tools/bin/../lib/gcc/pic32mx/4.5.2\libgcc.a(subsf3.o)
 .debug_abbrev  0x00001e18       0xd1 ../../pic32/compiler/pic32-tools/bin/../lib/gcc/pic32mx/4.5.2\libgcc.a(fixsfsi.o)
 .debug_abbrev  0x00001ee9       0xde ../../pic32/compiler/pic32-tools/bin/../lib/gcc/pic32mx/4.5.2\libgcc.a(floatsisf.o)
 .debug_abbrev  0x00001fc7       0xcf ../../pic32/compiler/pic32-tools/bin/../lib/gcc/pic32mx/4.5.2\libgcc.a(floatunsisf.o)
 .debug_abbrev  0x00002096       0xde ../../pic32/compiler/pic32-tools/bin/../lib/gcc/pic32mx/4.5.2\libgcc.a(adddf3.o)
 .debug_abbrev  0x00002174       0xd1 ../../pic32/compiler/pic32-tools/bin/../lib/gcc/pic32mx/4.5.2\libgcc.a(divdf3.o)
 .debug_abbrev  0x00002245       0xef ../../pic32/compiler/pic32-tools/bin/../lib/gcc/pic32mx/4.5.2\libgcc.a(eqdf2.o)
 .debug_abbrev  0x00002334       0xef ../../pic32/compiler/pic32-tools/bin/../lib/gcc/pic32mx/4.5.2\libgcc.a(gedf2.o)
 .debug_abbrev  0x00002423       0xe1 ../../pic32/compiler/pic32-tools/bin/../lib/gcc/pic32mx/4.5.2\libgcc.a(muldf3.o)
 .debug_abbrev  0x00002504       0xde ../../pic32/compiler/pic32-tools/bin/../lib/gcc/pic32mx/4.5.2\libgcc.a(subdf3.o)
 .debug_abbrev  0x000025e2       0xd1 ../../pic32/compiler/pic32-tools/bin/../lib/gcc/pic32mx/4.5.2\libgcc.a(fixdfsi.o)
 .debug_abbrev  0x000026b3       0xeb ../../pic32/compiler/pic32-tools/bin/../lib/gcc/pic32mx/4.5.2\libgcc.a(floatsidf.o)
 .debug_abbrev  0x0000279e       0xdc ../../pic32/compiler/pic32-tools/bin/../lib/gcc/pic32mx/4.5.2\libgcc.a(floatunsidf.o)
 .debug_abbrev  0x0000287a       0xe0 ../../pic32/compiler/pic32-tools/bin/../lib/gcc/pic32mx/4.5.2\libgcc.a(extendsfdf2.o)
 .debug_abbrev  0x0000295a       0xd1 ../../pic32/compiler/pic32-tools/bin/../lib/gcc/pic32mx/4.5.2\libgcc.a(truncdfsf2.o)
 .debug_abbrev  0x00002a2b      0x132 ../../pic32/compiler/pic32-tools/bin/../lib/gcc/pic32mx/4.5.2\libgcc.a(_udivdi3.o)
 .debug_abbrev  0x00002b5d      0x148 ../../pic32/compiler/pic32-tools/bin/../lib/gcc/pic32mx/4.5.2\libgcc.a(_umoddi3.o)
 .debug_abbrev  0x00002ca5       0xef ../../pic32/compiler/pic32-tools/bin/../lib/gcc/pic32mx/4.5.2\libgcc.a(ledf2.o)
 .debug_abbrev  0x00002d94       0x34 ../../pic32/compiler/pic32-tools/bin/../lib/gcc/pic32mx/4.5.2/../../../../pic32mx/lib\libmchp_peripheral_32MX250F128B.a(osc_config_lib.o)
 .debug_abbrev  0x00002dc8       0x25 ../../pic32/compiler/pic32-tools/bin/../lib/gcc/pic32mx/4.5.2/../../../../pic32mx/lib\libmchp_peripheral_32MX250F128B.a(int_disable_interrupts_lib.o)
 .debug_abbrev  0x00002ded       0x25 ../../pic32/compiler/pic32-tools/bin/../lib/gcc/pic32mx/4.5.2/../../../../pic32mx/lib\libmchp_peripheral_32MX250F128B.a(int_restore_interrupts_lib.o)
 .debug_abbrev  0x00002e12       0x25 ../../pic32/compiler/pic32-tools/bin/../lib/gcc/pic32mx/4.5.2/../../../../pic32mx/lib\libmchp_peripheral_32MX250F128B.a(spi_getc_spi2_lib_legacy.o)
 .debug_abbrev  0x00002e37       0x25 ../../pic32/compiler/pic32-tools/bin/../lib/gcc/pic32mx/4.5.2/../../../../pic32mx/lib\libmchp_peripheral_32MX250F128B.a(spi_open_spi2_lib_legacy.o)
 .debug_abbrev  0x00002e5c        0x1 ../../pic32/compiler/pic32-tools/bin/../lib/gcc/pic32mx/4.5.2/../../../../pic32mx/lib\libmchp_peripheral_32MX250F128B.a(spi_brg_tbl_lib_legacy.o)
 .debug_abbrev  0x00002e5d       0x25 ../../pic32/compiler/pic32-tools/bin/../lib/gcc/pic32mx/4.5.2/../../../../pic32mx/lib\libmchp_peripheral_32MX250F128B.a(dma_chn_clr_ev_flags_lib.o)
 .debug_abbrev  0x00002e82       0x34 ../../pic32/compiler/pic32-tools/bin/../lib/gcc/pic32mx/4.5.2/../../../../pic32mx/lib\libmchp_peripheral_32MX250F128B.a(dma_chn_open_lib.o)
 .debug_abbrev  0x00002eb6       0x25 ../../pic32/compiler/pic32-tools/bin/../lib/gcc/pic32mx/4.5.2/../../../../pic32mx/lib\libmchp_peripheral_32MX250F128B.a(dma_chn_enable_lib.o)
 .debug_abbrev  0x00002edb       0x25 ../../pic32/compiler/pic32-tools/bin/../lib/gcc/pic32mx/4.5.2/../../../../pic32mx/lib\libmchp_peripheral_32MX250F128B.a(dma_chn_get_ev_flags_lib.o)
 .debug_abbrev  0x00002f00       0x25 ../../pic32/compiler/pic32-tools/bin/../lib/gcc/pic32mx/4.5.2/../../../../pic32mx/lib\libmchp_peripheral_32MX250F128B.a(dma_chn_write_event_control_flags_lib.o)
 .debug_abbrev  0x00002f25       0x34 ../../pic32/compiler/pic32-tools/bin/../lib/gcc/pic32mx/4.5.2/../../../../pic32mx/lib\libmchp_peripheral_32MX250F128B.a(dma_chn_set_txfer_lib.o)
 .debug_abbrev  0x00002f59       0x34 ../../pic32/compiler/pic32-tools/bin/../lib/gcc/pic32mx/4.5.2/../../../../pic32mx/lib\libmchp_peripheral_32MX250F128B.a(dma_chn_start_txfer_lib.o)
 .debug_abbrev  0x00002f8d        0x1 ../../pic32/compiler/pic32-tools/bin/../lib/gcc/pic32mx/4.5.2/../../../../pic32mx/lib\libmchp_peripheral_32MX250F128B.a(dma_reg_map_tbl_lib.o)
 .debug_abbrev  0x00002f8e       0x25 ../../pic32/compiler/pic32-tools/bin/../lib/gcc/pic32mx/4.5.2/../../../../pic32mx/lib\libmchp_peripheral_32MX250F128B.a(int_tbl_lib.o)

.debug_line     0x00000000     0x4675
 *(.debug_line)
 .debug_line    0x00000000      0xa3f obj/ff.o
 .debug_line    0x00000a3f      0x537 obj/mmc_xmega.o
 .debug_line    0x00000f76      0x5c0 obj/graphicdraw.o
 .debug_line    0x00001536       0xbb obj/graphiclib.o
 .debug_line    0x000015f1      0x2fa obj/matrix4.o
 .debug_line    0x000018eb      0x585 obj/maze.o
 .debug_line    0x00001e70      0x670 obj/newmain.o
 .debug_line    0x000024e0      0x341 obj/triangle.o
 .debug_line    0x00002821       0xf9 obj/vector2.o
 .debug_line    0x0000291a       0xf0 obj/vector3.o
 .debug_line    0x00002a0a       0x55 obj/crti.o
 .debug_line    0x00002a5f       0x57 obj/crtn.o
 .debug_line    0x00002ab6      0x118 obj/crt0.o
 .debug_line    0x00002bce      0x17c ../../pic32/compiler/pic32-tools/bin/../lib/gcc/pic32mx/4.5.2\libgcc.a(_divdi3.o)
 .debug_line    0x00002d4a       0xd2 ../../pic32/compiler/pic32-tools/bin/../lib/gcc/pic32mx/4.5.2\libgcc.a(addsf3.o)
 .debug_line    0x00002e1c       0xbe ../../pic32/compiler/pic32-tools/bin/../lib/gcc/pic32mx/4.5.2\libgcc.a(eqsf2.o)
 .debug_line    0x00002eda       0xba ../../pic32/compiler/pic32-tools/bin/../lib/gcc/pic32mx/4.5.2\libgcc.a(gesf2.o)
 .debug_line    0x00002f94       0xd7 ../../pic32/compiler/pic32-tools/bin/../lib/gcc/pic32mx/4.5.2\libgcc.a(mulsf3.o)
 .debug_line    0x0000306b       0xd2 ../../pic32/compiler/pic32-tools/bin/../lib/gcc/pic32mx/4.5.2\libgcc.a(subsf3.o)
 .debug_line    0x0000313d       0xc6 ../../pic32/compiler/pic32-tools/bin/../lib/gcc/pic32mx/4.5.2\libgcc.a(fixsfsi.o)
 .debug_line    0x00003203       0xc7 ../../pic32/compiler/pic32-tools/bin/../lib/gcc/pic32mx/4.5.2\libgcc.a(floatsisf.o)
 .debug_line    0x000032ca       0xc9 ../../pic32/compiler/pic32-tools/bin/../lib/gcc/pic32mx/4.5.2\libgcc.a(floatunsisf.o)
 .debug_line    0x00003393       0xe9 ../../pic32/compiler/pic32-tools/bin/../lib/gcc/pic32mx/4.5.2\libgcc.a(adddf3.o)
 .debug_line    0x0000347c       0xd6 ../../pic32/compiler/pic32-tools/bin/../lib/gcc/pic32mx/4.5.2\libgcc.a(divdf3.o)
 .debug_line    0x00003552       0xb9 ../../pic32/compiler/pic32-tools/bin/../lib/gcc/pic32mx/4.5.2\libgcc.a(eqdf2.o)
 .debug_line    0x0000360b       0xba ../../pic32/compiler/pic32-tools/bin/../lib/gcc/pic32mx/4.5.2\libgcc.a(gedf2.o)
 .debug_line    0x000036c5       0xd9 ../../pic32/compiler/pic32-tools/bin/../lib/gcc/pic32mx/4.5.2\libgcc.a(muldf3.o)
 .debug_line    0x0000379e       0xeb ../../pic32/compiler/pic32-tools/bin/../lib/gcc/pic32mx/4.5.2\libgcc.a(subdf3.o)
 .debug_line    0x00003889       0xc6 ../../pic32/compiler/pic32-tools/bin/../lib/gcc/pic32mx/4.5.2\libgcc.a(fixdfsi.o)
 .debug_line    0x0000394f       0xc6 ../../pic32/compiler/pic32-tools/bin/../lib/gcc/pic32mx/4.5.2\libgcc.a(floatsidf.o)
 .debug_line    0x00003a15       0xc8 ../../pic32/compiler/pic32-tools/bin/../lib/gcc/pic32mx/4.5.2\libgcc.a(floatunsidf.o)
 .debug_line    0x00003add       0xcb ../../pic32/compiler/pic32-tools/bin/../lib/gcc/pic32mx/4.5.2\libgcc.a(extendsfdf2.o)
 .debug_line    0x00003ba8       0xcd ../../pic32/compiler/pic32-tools/bin/../lib/gcc/pic32mx/4.5.2\libgcc.a(truncdfsf2.o)
 .debug_line    0x00003c75      0x16d ../../pic32/compiler/pic32-tools/bin/../lib/gcc/pic32mx/4.5.2\libgcc.a(_udivdi3.o)
 .debug_line    0x00003de2      0x16c ../../pic32/compiler/pic32-tools/bin/../lib/gcc/pic32mx/4.5.2\libgcc.a(_umoddi3.o)
 .debug_line    0x00003f4e       0xba ../../pic32/compiler/pic32-tools/bin/../lib/gcc/pic32mx/4.5.2\libgcc.a(ledf2.o)
 .debug_line    0x00004008       0xb9 ../../pic32/compiler/pic32-tools/bin/../lib/gcc/pic32mx/4.5.2/../../../../pic32mx/lib\libmchp_peripheral_32MX250F128B.a(osc_config_lib.o)
 .debug_line    0x000040c1       0x73 ../../pic32/compiler/pic32-tools/bin/../lib/gcc/pic32mx/4.5.2/../../../../pic32mx/lib\libmchp_peripheral_32MX250F128B.a(int_disable_interrupts_lib.o)
 .debug_line    0x00004134       0x73 ../../pic32/compiler/pic32-tools/bin/../lib/gcc/pic32mx/4.5.2/../../../../pic32mx/lib\libmchp_peripheral_32MX250F128B.a(int_restore_interrupts_lib.o)
 .debug_line    0x000041a7       0x71 ../../pic32/compiler/pic32-tools/bin/../lib/gcc/pic32mx/4.5.2/../../../../pic32mx/lib\libmchp_peripheral_32MX250F128B.a(spi_getc_spi2_lib_legacy.o)
 .debug_line    0x00004218       0x71 ../../pic32/compiler/pic32-tools/bin/../lib/gcc/pic32mx/4.5.2/../../../../pic32mx/lib\libmchp_peripheral_32MX250F128B.a(spi_open_spi2_lib_legacy.o)
 .debug_line    0x00004289        0x0 ../../pic32/compiler/pic32-tools/bin/../lib/gcc/pic32mx/4.5.2/../../../../pic32mx/lib\libmchp_peripheral_32MX250F128B.a(spi_brg_tbl_lib_legacy.o)
 .debug_line    0x00004289       0x71 ../../pic32/compiler/pic32-tools/bin/../lib/gcc/pic32mx/4.5.2/../../../../pic32mx/lib\libmchp_peripheral_32MX250F128B.a(dma_chn_clr_ev_flags_lib.o)
 .debug_line    0x000042fa       0x7b ../../pic32/compiler/pic32-tools/bin/../lib/gcc/pic32mx/4.5.2/../../../../pic32mx/lib\libmchp_peripheral_32MX250F128B.a(dma_chn_open_lib.o)
 .debug_line    0x00004375       0x6b ../../pic32/compiler/pic32-tools/bin/../lib/gcc/pic32mx/4.5.2/../../../../pic32mx/lib\libmchp_peripheral_32MX250F128B.a(dma_chn_enable_lib.o)
 .debug_line    0x000043e0       0x71 ../../pic32/compiler/pic32-tools/bin/../lib/gcc/pic32mx/4.5.2/../../../../pic32mx/lib\libmchp_peripheral_32MX250F128B.a(dma_chn_get_ev_flags_lib.o)
 .debug_line    0x00004451       0x7e ../../pic32/compiler/pic32-tools/bin/../lib/gcc/pic32mx/4.5.2/../../../../pic32mx/lib\libmchp_peripheral_32MX250F128B.a(dma_chn_write_event_control_flags_lib.o)
 .debug_line    0x000044cf       0x80 ../../pic32/compiler/pic32-tools/bin/../lib/gcc/pic32mx/4.5.2/../../../../pic32mx/lib\libmchp_peripheral_32MX250F128B.a(dma_chn_set_txfer_lib.o)
 .debug_line    0x0000454f       0xc2 ../../pic32/compiler/pic32-tools/bin/../lib/gcc/pic32mx/4.5.2/../../../../pic32mx/lib\libmchp_peripheral_32MX250F128B.a(dma_chn_start_txfer_lib.o)
 .debug_line    0x00004611        0x0 ../../pic32/compiler/pic32-tools/bin/../lib/gcc/pic32mx/4.5.2/../../../../pic32mx/lib\libmchp_peripheral_32MX250F128B.a(dma_reg_map_tbl_lib.o)
 .debug_line    0x00004611       0x64 ../../pic32/compiler/pic32-tools/bin/../lib/gcc/pic32mx/4.5.2/../../../../pic32mx/lib\libmchp_peripheral_32MX250F128B.a(int_tbl_lib.o)

.debug_frame    0x00000000      0xe8c
 *(.debug_frame)
 .debug_frame   0x00000000      0x2e4 obj/ff.o
 .debug_frame   0x000002e4      0x140 obj/mmc_xmega.o
 .debug_frame   0x00000424      0x190 obj/graphicdraw.o
 .debug_frame   0x000005b4       0xf0 obj/matrix4.o
 .debug_frame   0x000006a4      0x10c obj/maze.o
 .debug_frame   0x000007b0       0x84 obj/newmain.o
 .debug_frame   0x00000834       0x7c obj/triangle.o
 .debug_frame   0x000008b0       0xe0 obj/vector2.o
 .debug_frame   0x00000990       0x20 obj/vector3.o
 .debug_frame   0x000009b0       0x20 ../../pic32/compiler/pic32-tools/bin/../lib/gcc/pic32mx/4.5.2\libgcc.a(addsf3.o)
 .debug_frame   0x000009d0       0x20 ../../pic32/compiler/pic32-tools/bin/../lib/gcc/pic32mx/4.5.2\libgcc.a(eqsf2.o)
 .debug_frame   0x000009f0       0x20 ../../pic32/compiler/pic32-tools/bin/../lib/gcc/pic32mx/4.5.2\libgcc.a(gesf2.o)
 .debug_frame   0x00000a10       0x28 ../../pic32/compiler/pic32-tools/bin/../lib/gcc/pic32mx/4.5.2\libgcc.a(mulsf3.o)
 .debug_frame   0x00000a38       0x20 ../../pic32/compiler/pic32-tools/bin/../lib/gcc/pic32mx/4.5.2\libgcc.a(subsf3.o)
 .debug_frame   0x00000a58       0x20 ../../pic32/compiler/pic32-tools/bin/../lib/gcc/pic32mx/4.5.2\libgcc.a(fixsfsi.o)
 .debug_frame   0x00000a78       0x20 ../../pic32/compiler/pic32-tools/bin/../lib/gcc/pic32mx/4.5.2\libgcc.a(floatsisf.o)
 .debug_frame   0x00000a98       0x20 ../../pic32/compiler/pic32-tools/bin/../lib/gcc/pic32mx/4.5.2\libgcc.a(floatunsisf.o)
 .debug_frame   0x00000ab8       0x20 ../../pic32/compiler/pic32-tools/bin/../lib/gcc/pic32mx/4.5.2\libgcc.a(adddf3.o)
 .debug_frame   0x00000ad8       0x28 ../../pic32/compiler/pic32-tools/bin/../lib/gcc/pic32mx/4.5.2\libgcc.a(divdf3.o)
 .debug_frame   0x00000b00       0x20 ../../pic32/compiler/pic32-tools/bin/../lib/gcc/pic32mx/4.5.2\libgcc.a(eqdf2.o)
 .debug_frame   0x00000b20       0x20 ../../pic32/compiler/pic32-tools/bin/../lib/gcc/pic32mx/4.5.2\libgcc.a(gedf2.o)
 .debug_frame   0x00000b40       0x28 ../../pic32/compiler/pic32-tools/bin/../lib/gcc/pic32mx/4.5.2\libgcc.a(muldf3.o)
 .debug_frame   0x00000b68       0x20 ../../pic32/compiler/pic32-tools/bin/../lib/gcc/pic32mx/4.5.2\libgcc.a(subdf3.o)
 .debug_frame   0x00000b88       0x20 ../../pic32/compiler/pic32-tools/bin/../lib/gcc/pic32mx/4.5.2\libgcc.a(fixdfsi.o)
 .debug_frame   0x00000ba8       0x20 ../../pic32/compiler/pic32-tools/bin/../lib/gcc/pic32mx/4.5.2\libgcc.a(floatsidf.o)
 .debug_frame   0x00000bc8       0x20 ../../pic32/compiler/pic32-tools/bin/../lib/gcc/pic32mx/4.5.2\libgcc.a(floatunsidf.o)
 .debug_frame   0x00000be8       0x20 ../../pic32/compiler/pic32-tools/bin/../lib/gcc/pic32mx/4.5.2\libgcc.a(extendsfdf2.o)
 .debug_frame   0x00000c08       0x20 ../../pic32/compiler/pic32-tools/bin/../lib/gcc/pic32mx/4.5.2\libgcc.a(truncdfsf2.o)
 .debug_frame   0x00000c28       0x20 ../../pic32/compiler/pic32-tools/bin/../lib/gcc/pic32mx/4.5.2\libgcc.a(ledf2.o)
 .debug_frame   0x00000c48       0x30 ../../pic32/compiler/pic32-tools/bin/../lib/gcc/pic32mx/4.5.2/../../../../pic32mx/lib\libmchp_peripheral_32MX250F128B.a(osc_config_lib.o)
 .debug_frame   0x00000c78       0x20 ../../pic32/compiler/pic32-tools/bin/../lib/gcc/pic32mx/4.5.2/../../../../pic32mx/lib\libmchp_peripheral_32MX250F128B.a(int_disable_interrupts_lib.o)
 .debug_frame   0x00000c98       0x20 ../../pic32/compiler/pic32-tools/bin/../lib/gcc/pic32mx/4.5.2/../../../../pic32mx/lib\libmchp_peripheral_32MX250F128B.a(int_restore_interrupts_lib.o)
 .debug_frame   0x00000cb8       0x20 ../../pic32/compiler/pic32-tools/bin/../lib/gcc/pic32mx/4.5.2/../../../../pic32mx/lib\libmchp_peripheral_32MX250F128B.a(spi_getc_spi2_lib_legacy.o)
 .debug_frame   0x00000cd8       0x20 ../../pic32/compiler/pic32-tools/bin/../lib/gcc/pic32mx/4.5.2/../../../../pic32mx/lib\libmchp_peripheral_32MX250F128B.a(spi_open_spi2_lib_legacy.o)
 .debug_frame   0x00000cf8       0x20 ../../pic32/compiler/pic32-tools/bin/../lib/gcc/pic32mx/4.5.2/../../../../pic32mx/lib\libmchp_peripheral_32MX250F128B.a(dma_chn_clr_ev_flags_lib.o)
 .debug_frame   0x00000d18       0x34 ../../pic32/compiler/pic32-tools/bin/../lib/gcc/pic32mx/4.5.2/../../../../pic32mx/lib\libmchp_peripheral_32MX250F128B.a(dma_chn_open_lib.o)
 .debug_frame   0x00000d4c       0x20 ../../pic32/compiler/pic32-tools/bin/../lib/gcc/pic32mx/4.5.2/../../../../pic32mx/lib\libmchp_peripheral_32MX250F128B.a(dma_chn_enable_lib.o)
 .debug_frame   0x00000d6c       0x20 ../../pic32/compiler/pic32-tools/bin/../lib/gcc/pic32mx/4.5.2/../../../../pic32mx/lib\libmchp_peripheral_32MX250F128B.a(dma_chn_get_ev_flags_lib.o)
 .debug_frame   0x00000d8c       0x20 ../../pic32/compiler/pic32-tools/bin/../lib/gcc/pic32mx/4.5.2/../../../../pic32mx/lib\libmchp_peripheral_32MX250F128B.a(dma_chn_write_event_control_flags_lib.o)
 .debug_frame   0x00000dac       0x20 ../../pic32/compiler/pic32-tools/bin/../lib/gcc/pic32mx/4.5.2/../../../../pic32mx/lib\libmchp_peripheral_32MX250F128B.a(dma_chn_set_txfer_lib.o)
 .debug_frame   0x00000dcc       0x20 ../../pic32/compiler/pic32-tools/bin/../lib/gcc/pic32mx/4.5.2/../../../../pic32mx/lib\libmchp_peripheral_32MX250F128B.a(dma_chn_start_txfer_lib.o)
 .debug_frame   0x00000dec       0xa0 ../../pic32/compiler/pic32-tools/bin/../lib/gcc/pic32mx/4.5.2/../../../../pic32mx/lib\libmchp_peripheral_32MX250F128B.a(int_tbl_lib.o)

.debug_str      0x00000000      0x319
 *(.debug_str)
 .debug_str     0x00000000        0xa obj/ff.o
 .debug_str     0x0000000a      0x11f obj/mmc_xmega.o
 .debug_str     0x00000129       0x5b obj/graphicdraw.o
 .debug_str     0x00000184        0x0 obj/graphiclib.o
 .debug_str     0x00000184       0x24 obj/matrix4.o
 .debug_str     0x000001a8       0x5b obj/maze.o
 .debug_str     0x00000203       0x92 obj/newmain.o
 .debug_str     0x00000295       0x5b obj/triangle.o
 .debug_str     0x000002f0       0x21 obj/vector2.o
 .debug_str     0x00000311        0x8 obj/vector3.o
 .debug_str     0x00000319        0x0 ../../pic32/compiler/pic32-tools/bin/../lib/gcc/pic32mx/4.5.2\libgcc.a(_divdi3.o)
 .debug_str     0x00000319        0x0 ../../pic32/compiler/pic32-tools/bin/../lib/gcc/pic32mx/4.5.2\libgcc.a(addsf3.o)
 .debug_str     0x00000319        0x0 ../../pic32/compiler/pic32-tools/bin/../lib/gcc/pic32mx/4.5.2\libgcc.a(eqsf2.o)
 .debug_str     0x00000319        0x0 ../../pic32/compiler/pic32-tools/bin/../lib/gcc/pic32mx/4.5.2\libgcc.a(gesf2.o)
 .debug_str     0x00000319        0x0 ../../pic32/compiler/pic32-tools/bin/../lib/gcc/pic32mx/4.5.2\libgcc.a(mulsf3.o)
 .debug_str     0x00000319        0x0 ../../pic32/compiler/pic32-tools/bin/../lib/gcc/pic32mx/4.5.2\libgcc.a(subsf3.o)
 .debug_str     0x00000319        0x0 ../../pic32/compiler/pic32-tools/bin/../lib/gcc/pic32mx/4.5.2\libgcc.a(fixsfsi.o)
 .debug_str     0x00000319        0x0 ../../pic32/compiler/pic32-tools/bin/../lib/gcc/pic32mx/4.5.2\libgcc.a(floatsisf.o)
 .debug_str     0x00000319        0x0 ../../pic32/compiler/pic32-tools/bin/../lib/gcc/pic32mx/4.5.2\libgcc.a(floatunsisf.o)
 .debug_str     0x00000319        0x0 ../../pic32/compiler/pic32-tools/bin/../lib/gcc/pic32mx/4.5.2\libgcc.a(adddf3.o)
 .debug_str     0x00000319        0x0 ../../pic32/compiler/pic32-tools/bin/../lib/gcc/pic32mx/4.5.2\libgcc.a(divdf3.o)
 .debug_str     0x00000319        0x0 ../../pic32/compiler/pic32-tools/bin/../lib/gcc/pic32mx/4.5.2\libgcc.a(eqdf2.o)
 .debug_str     0x00000319        0x0 ../../pic32/compiler/pic32-tools/bin/../lib/gcc/pic32mx/4.5.2\libgcc.a(gedf2.o)
 .debug_str     0x00000319        0x0 ../../pic32/compiler/pic32-tools/bin/../lib/gcc/pic32mx/4.5.2\libgcc.a(muldf3.o)
 .debug_str     0x00000319        0x0 ../../pic32/compiler/pic32-tools/bin/../lib/gcc/pic32mx/4.5.2\libgcc.a(subdf3.o)
 .debug_str     0x00000319        0x0 ../../pic32/compiler/pic32-tools/bin/../lib/gcc/pic32mx/4.5.2\libgcc.a(fixdfsi.o)
 .debug_str     0x00000319        0x0 ../../pic32/compiler/pic32-tools/bin/../lib/gcc/pic32mx/4.5.2\libgcc.a(floatsidf.o)
 .debug_str     0x00000319        0x0 ../../pic32/compiler/pic32-tools/bin/../lib/gcc/pic32mx/4.5.2\libgcc.a(floatunsidf.o)
 .debug_str     0x00000319        0x0 ../../pic32/compiler/pic32-tools/bin/../lib/gcc/pic32mx/4.5.2\libgcc.a(extendsfdf2.o)
 .debug_str     0x00000319        0x0 ../../pic32/compiler/pic32-tools/bin/../lib/gcc/pic32mx/4.5.2\libgcc.a(truncdfsf2.o)
 .debug_str     0x00000319        0x0 ../../pic32/compiler/pic32-tools/bin/../lib/gcc/pic32mx/4.5.2\libgcc.a(_udivdi3.o)
 .debug_str     0x00000319        0x0 ../../pic32/compiler/pic32-tools/bin/../lib/gcc/pic32mx/4.5.2\libgcc.a(_umoddi3.o)
 .debug_str     0x00000319        0x0 ../../pic32/compiler/pic32-tools/bin/../lib/gcc/pic32mx/4.5.2\libgcc.a(ledf2.o)
 .debug_str     0x00000319        0x0 ../../pic32/compiler/pic32-tools/bin/../lib/gcc/pic32mx/4.5.2/../../../../pic32mx/lib\libmchp_peripheral_32MX250F128B.a(osc_config_lib.o)
 .debug_str     0x00000319        0x0 ../../pic32/compiler/pic32-tools/bin/../lib/gcc/pic32mx/4.5.2/../../../../pic32mx/lib\libmchp_peripheral_32MX250F128B.a(int_disable_interrupts_lib.o)
 .debug_str     0x00000319        0x0 ../../pic32/compiler/pic32-tools/bin/../lib/gcc/pic32mx/4.5.2/../../../../pic32mx/lib\libmchp_peripheral_32MX250F128B.a(int_restore_interrupts_lib.o)
 .debug_str     0x00000319        0x0 ../../pic32/compiler/pic32-tools/bin/../lib/gcc/pic32mx/4.5.2/../../../../pic32mx/lib\libmchp_peripheral_32MX250F128B.a(spi_getc_spi2_lib_legacy.o)
 .debug_str     0x00000319        0x0 ../../pic32/compiler/pic32-tools/bin/../lib/gcc/pic32mx/4.5.2/../../../../pic32mx/lib\libmchp_peripheral_32MX250F128B.a(spi_open_spi2_lib_legacy.o)
 .debug_str     0x00000319        0x0 ../../pic32/compiler/pic32-tools/bin/../lib/gcc/pic32mx/4.5.2/../../../../pic32mx/lib\libmchp_peripheral_32MX250F128B.a(spi_brg_tbl_lib_legacy.o)
 .debug_str     0x00000319        0x0 ../../pic32/compiler/pic32-tools/bin/../lib/gcc/pic32mx/4.5.2/../../../../pic32mx/lib\libmchp_peripheral_32MX250F128B.a(dma_chn_clr_ev_flags_lib.o)
 .debug_str     0x00000319        0x0 ../../pic32/compiler/pic32-tools/bin/../lib/gcc/pic32mx/4.5.2/../../../../pic32mx/lib\libmchp_peripheral_32MX250F128B.a(dma_chn_open_lib.o)
 .debug_str     0x00000319        0x0 ../../pic32/compiler/pic32-tools/bin/../lib/gcc/pic32mx/4.5.2/../../../../pic32mx/lib\libmchp_peripheral_32MX250F128B.a(dma_chn_enable_lib.o)
 .debug_str     0x00000319        0x0 ../../pic32/compiler/pic32-tools/bin/../lib/gcc/pic32mx/4.5.2/../../../../pic32mx/lib\libmchp_peripheral_32MX250F128B.a(dma_chn_get_ev_flags_lib.o)
 .debug_str     0x00000319        0x0 ../../pic32/compiler/pic32-tools/bin/../lib/gcc/pic32mx/4.5.2/../../../../pic32mx/lib\libmchp_peripheral_32MX250F128B.a(dma_chn_write_event_control_flags_lib.o)
 .debug_str     0x00000319        0x0 ../../pic32/compiler/pic32-tools/bin/../lib/gcc/pic32mx/4.5.2/../../../../pic32mx/lib\libmchp_peripheral_32MX250F128B.a(dma_chn_set_txfer_lib.o)
 .debug_str     0x00000319        0x0 ../../pic32/compiler/pic32-tools/bin/../lib/gcc/pic32mx/4.5.2/../../../../pic32mx/lib\libmchp_peripheral_32MX250F128B.a(dma_chn_start_txfer_lib.o)
 .debug_str     0x00000319        0x0 ../../pic32/compiler/pic32-tools/bin/../lib/gcc/pic32mx/4.5.2/../../../../pic32mx/lib\libmchp_peripheral_32MX250F128B.a(dma_reg_map_tbl_lib.o)
 .debug_str     0x00000319        0x0 ../../pic32/compiler/pic32-tools/bin/../lib/gcc/pic32mx/4.5.2/../../../../pic32mx/lib\libmchp_peripheral_32MX250F128B.a(int_tbl_lib.o)

.debug_loc      0x00000000     0xad22
 *(.debug_loc)
 .debug_loc     0x00000000     0x2c16 obj/ff.o
 .debug_loc     0x00002c16      0x55c obj/mmc_xmega.o
 .debug_loc     0x00003172      0x8fb obj/graphicdraw.o
 .debug_loc     0x00003a6d      0x311 obj/matrix4.o
 .debug_loc     0x00003d7e      0x56f obj/maze.o
 .debug_loc     0x000042ed      0x24d obj/newmain.o
 .debug_loc     0x0000453a      0x585 obj/triangle.o
 .debug_loc     0x00004abf      0x100 obj/vector2.o
 .debug_loc     0x00004bbf       0x6d obj/vector3.o
 .debug_loc     0x00004c2c      0x94e ../../pic32/compiler/pic32-tools/bin/../lib/gcc/pic32mx/4.5.2\libgcc.a(_divdi3.o)
 .debug_loc     0x0000557a      0x6c3 ../../pic32/compiler/pic32-tools/bin/../lib/gcc/pic32mx/4.5.2\libgcc.a(addsf3.o)
 .debug_loc     0x00005c3d       0x5f ../../pic32/compiler/pic32-tools/bin/../lib/gcc/pic32mx/4.5.2\libgcc.a(eqsf2.o)
 .debug_loc     0x00005c9c       0xb9 ../../pic32/compiler/pic32-tools/bin/../lib/gcc/pic32mx/4.5.2\libgcc.a(gesf2.o)
 .debug_loc     0x00005d55      0x322 ../../pic32/compiler/pic32-tools/bin/../lib/gcc/pic32mx/4.5.2\libgcc.a(mulsf3.o)
 .debug_loc     0x00006077      0x6ce ../../pic32/compiler/pic32-tools/bin/../lib/gcc/pic32mx/4.5.2\libgcc.a(subsf3.o)
 .debug_loc     0x00006745       0x96 ../../pic32/compiler/pic32-tools/bin/../lib/gcc/pic32mx/4.5.2\libgcc.a(fixsfsi.o)
 .debug_loc     0x000067db      0x12a ../../pic32/compiler/pic32-tools/bin/../lib/gcc/pic32mx/4.5.2\libgcc.a(floatsisf.o)
 .debug_loc     0x00006905      0x117 ../../pic32/compiler/pic32-tools/bin/../lib/gcc/pic32mx/4.5.2\libgcc.a(floatunsisf.o)
 .debug_loc     0x00006a1c      0xd93 ../../pic32/compiler/pic32-tools/bin/../lib/gcc/pic32mx/4.5.2\libgcc.a(adddf3.o)
 .debug_loc     0x000077af      0xa78 ../../pic32/compiler/pic32-tools/bin/../lib/gcc/pic32mx/4.5.2\libgcc.a(divdf3.o)
 .debug_loc     0x00008227       0x2b ../../pic32/compiler/pic32-tools/bin/../lib/gcc/pic32mx/4.5.2\libgcc.a(eqdf2.o)
 .debug_loc     0x00008252       0x90 ../../pic32/compiler/pic32-tools/bin/../lib/gcc/pic32mx/4.5.2\libgcc.a(gedf2.o)
 .debug_loc     0x000082e2      0x699 ../../pic32/compiler/pic32-tools/bin/../lib/gcc/pic32mx/4.5.2\libgcc.a(muldf3.o)
 .debug_loc     0x0000897b      0xcf3 ../../pic32/compiler/pic32-tools/bin/../lib/gcc/pic32mx/4.5.2\libgcc.a(subdf3.o)
 .debug_loc     0x0000966e       0xa6 ../../pic32/compiler/pic32-tools/bin/../lib/gcc/pic32mx/4.5.2\libgcc.a(fixdfsi.o)
 .debug_loc     0x00009714       0xf3 ../../pic32/compiler/pic32-tools/bin/../lib/gcc/pic32mx/4.5.2\libgcc.a(floatsidf.o)
 .debug_loc     0x00009807       0xca ../../pic32/compiler/pic32-tools/bin/../lib/gcc/pic32mx/4.5.2\libgcc.a(floatunsidf.o)
 .debug_loc     0x000098d1      0x174 ../../pic32/compiler/pic32-tools/bin/../lib/gcc/pic32mx/4.5.2\libgcc.a(extendsfdf2.o)
 .debug_loc     0x00009a45      0x194 ../../pic32/compiler/pic32-tools/bin/../lib/gcc/pic32mx/4.5.2\libgcc.a(truncdfsf2.o)
 .debug_loc     0x00009bd9      0x8c9 ../../pic32/compiler/pic32-tools/bin/../lib/gcc/pic32mx/4.5.2\libgcc.a(_udivdi3.o)
 .debug_loc     0x0000a4a2      0x7f0 ../../pic32/compiler/pic32-tools/bin/../lib/gcc/pic32mx/4.5.2\libgcc.a(_umoddi3.o)
 .debug_loc     0x0000ac92       0x90 ../../pic32/compiler/pic32-tools/bin/../lib/gcc/pic32mx/4.5.2\libgcc.a(ledf2.o)

.debug_macinfo
 *(.debug_macinfo)

.debug_weaknames
 *(.debug_weaknames)

.debug_funcnames
 *(.debug_funcnames)

.debug_typenames
 *(.debug_typenames)

.debug_varnames
 *(.debug_varnames)

.debug_pubtypes
                0x00000000      0xa6a
 *(.debug_pubtypes)
 .debug_pubtypes
                0x00000000       0x89 obj/ff.o
 .debug_pubtypes
                0x00000089      0x145 obj/mmc_xmega.o
 .debug_pubtypes
                0x000001ce       0x7d obj/graphicdraw.o
 .debug_pubtypes
                0x0000024b       0x12 obj/graphiclib.o
 .debug_pubtypes
                0x0000025d       0x51 obj/matrix4.o
 .debug_pubtypes
                0x000002ae       0x93 obj/maze.o
 .debug_pubtypes
                0x00000341       0xc5 obj/newmain.o
 .debug_pubtypes
                0x00000406       0x8d obj/triangle.o
 .debug_pubtypes
                0x00000493       0x1e obj/vector2.o
 .debug_pubtypes
                0x000004b1       0x38 obj/vector3.o
 .debug_pubtypes
                0x000004e9       0x59 ../../pic32/compiler/pic32-tools/bin/../lib/gcc/pic32mx/4.5.2\libgcc.a(_divdi3.o)
 .debug_pubtypes
                0x00000542       0x2d ../../pic32/compiler/pic32-tools/bin/../lib/gcc/pic32mx/4.5.2\libgcc.a(addsf3.o)
 .debug_pubtypes
                0x0000056f       0x2d ../../pic32/compiler/pic32-tools/bin/../lib/gcc/pic32mx/4.5.2\libgcc.a(eqsf2.o)
 .debug_pubtypes
                0x0000059c       0x2d ../../pic32/compiler/pic32-tools/bin/../lib/gcc/pic32mx/4.5.2\libgcc.a(gesf2.o)
 .debug_pubtypes
                0x000005c9       0x45 ../../pic32/compiler/pic32-tools/bin/../lib/gcc/pic32mx/4.5.2\libgcc.a(mulsf3.o)
 .debug_pubtypes
                0x0000060e       0x2d ../../pic32/compiler/pic32-tools/bin/../lib/gcc/pic32mx/4.5.2\libgcc.a(subsf3.o)
 .debug_pubtypes
                0x0000063b       0x44 ../../pic32/compiler/pic32-tools/bin/../lib/gcc/pic32mx/4.5.2\libgcc.a(fixsfsi.o)
 .debug_pubtypes
                0x0000067f       0x44 ../../pic32/compiler/pic32-tools/bin/../lib/gcc/pic32mx/4.5.2\libgcc.a(floatsisf.o)
 .debug_pubtypes
                0x000006c3       0x39 ../../pic32/compiler/pic32-tools/bin/../lib/gcc/pic32mx/4.5.2\libgcc.a(floatunsisf.o)
 .debug_pubtypes
                0x000006fc       0x2d ../../pic32/compiler/pic32-tools/bin/../lib/gcc/pic32mx/4.5.2\libgcc.a(adddf3.o)
 .debug_pubtypes
                0x00000729       0x45 ../../pic32/compiler/pic32-tools/bin/../lib/gcc/pic32mx/4.5.2\libgcc.a(divdf3.o)
 .debug_pubtypes
                0x0000076e       0x2d ../../pic32/compiler/pic32-tools/bin/../lib/gcc/pic32mx/4.5.2\libgcc.a(eqdf2.o)
 .debug_pubtypes
                0x0000079b       0x2d ../../pic32/compiler/pic32-tools/bin/../lib/gcc/pic32mx/4.5.2\libgcc.a(gedf2.o)
 .debug_pubtypes
                0x000007c8       0x45 ../../pic32/compiler/pic32-tools/bin/../lib/gcc/pic32mx/4.5.2\libgcc.a(muldf3.o)
 .debug_pubtypes
                0x0000080d       0x2d ../../pic32/compiler/pic32-tools/bin/../lib/gcc/pic32mx/4.5.2\libgcc.a(subdf3.o)
 .debug_pubtypes
                0x0000083a       0x44 ../../pic32/compiler/pic32-tools/bin/../lib/gcc/pic32mx/4.5.2\libgcc.a(fixdfsi.o)
 .debug_pubtypes
                0x0000087e       0x44 ../../pic32/compiler/pic32-tools/bin/../lib/gcc/pic32mx/4.5.2\libgcc.a(floatsidf.o)
 .debug_pubtypes
                0x000008c2       0x39 ../../pic32/compiler/pic32-tools/bin/../lib/gcc/pic32mx/4.5.2\libgcc.a(floatunsidf.o)
 .debug_pubtypes
                0x000008fb       0x48 ../../pic32/compiler/pic32-tools/bin/../lib/gcc/pic32mx/4.5.2\libgcc.a(extendsfdf2.o)
 .debug_pubtypes
                0x00000943       0x48 ../../pic32/compiler/pic32-tools/bin/../lib/gcc/pic32mx/4.5.2\libgcc.a(truncdfsf2.o)
 .debug_pubtypes
                0x0000098b       0x59 ../../pic32/compiler/pic32-tools/bin/../lib/gcc/pic32mx/4.5.2\libgcc.a(_udivdi3.o)
 .debug_pubtypes
                0x000009e4       0x59 ../../pic32/compiler/pic32-tools/bin/../lib/gcc/pic32mx/4.5.2\libgcc.a(_umoddi3.o)
 .debug_pubtypes
                0x00000a3d       0x2d ../../pic32/compiler/pic32-tools/bin/../lib/gcc/pic32mx/4.5.2\libgcc.a(ledf2.o)

.debug_ranges   0x00000000      0x188
 *(.debug_ranges)
 .debug_ranges  0x00000000       0x20 obj/crti.o
 .debug_ranges  0x00000020       0x20 obj/crtn.o
 .debug_ranges  0x00000040       0x38 obj/crt0.o
 .debug_ranges  0x00000078       0x10 ../../pic32/compiler/pic32-tools/bin/../lib/gcc/pic32mx/4.5.2/../../../../pic32mx/lib\libmchp_peripheral_32MX250F128B.a(osc_config_lib.o)
 .debug_ranges  0x00000088       0x10 ../../pic32/compiler/pic32-tools/bin/../lib/gcc/pic32mx/4.5.2/../../../../pic32mx/lib\libmchp_peripheral_32MX250F128B.a(int_disable_interrupts_lib.o)
 .debug_ranges  0x00000098       0x10 ../../pic32/compiler/pic32-tools/bin/../lib/gcc/pic32mx/4.5.2/../../../../pic32mx/lib\libmchp_peripheral_32MX250F128B.a(int_restore_interrupts_lib.o)
 .debug_ranges  0x000000a8       0x10 ../../pic32/compiler/pic32-tools/bin/../lib/gcc/pic32mx/4.5.2/../../../../pic32mx/lib\libmchp_peripheral_32MX250F128B.a(spi_getc_spi2_lib_legacy.o)
 .debug_ranges  0x000000b8       0x10 ../../pic32/compiler/pic32-tools/bin/../lib/gcc/pic32mx/4.5.2/../../../../pic32mx/lib\libmchp_peripheral_32MX250F128B.a(spi_open_spi2_lib_legacy.o)
 .debug_ranges  0x000000c8       0x10 ../../pic32/compiler/pic32-tools/bin/../lib/gcc/pic32mx/4.5.2/../../../../pic32mx/lib\libmchp_peripheral_32MX250F128B.a(dma_chn_clr_ev_flags_lib.o)
 .debug_ranges  0x000000d8       0x10 ../../pic32/compiler/pic32-tools/bin/../lib/gcc/pic32mx/4.5.2/../../../../pic32mx/lib\libmchp_peripheral_32MX250F128B.a(dma_chn_open_lib.o)
 .debug_ranges  0x000000e8       0x10 ../../pic32/compiler/pic32-tools/bin/../lib/gcc/pic32mx/4.5.2/../../../../pic32mx/lib\libmchp_peripheral_32MX250F128B.a(dma_chn_enable_lib.o)
 .debug_ranges  0x000000f8       0x10 ../../pic32/compiler/pic32-tools/bin/../lib/gcc/pic32mx/4.5.2/../../../../pic32mx/lib\libmchp_peripheral_32MX250F128B.a(dma_chn_get_ev_flags_lib.o)
 .debug_ranges  0x00000108       0x10 ../../pic32/compiler/pic32-tools/bin/../lib/gcc/pic32mx/4.5.2/../../../../pic32mx/lib\libmchp_peripheral_32MX250F128B.a(dma_chn_write_event_control_flags_lib.o)
 .debug_ranges  0x00000118       0x10 ../../pic32/compiler/pic32-tools/bin/../lib/gcc/pic32mx/4.5.2/../../../../pic32mx/lib\libmchp_peripheral_32MX250F128B.a(dma_chn_set_txfer_lib.o)
 .debug_ranges  0x00000128       0x10 ../../pic32/compiler/pic32-tools/bin/../lib/gcc/pic32mx/4.5.2/../../../../pic32mx/lib\libmchp_peripheral_32MX250F128B.a(dma_chn_start_txfer_lib.o)
 .debug_ranges  0x00000138       0x50 ../../pic32/compiler/pic32-tools/bin/../lib/gcc/pic32mx/4.5.2/../../../../pic32mx/lib\libmchp_peripheral_32MX250F128B.a(int_tbl_lib.o)

.gnu.attributes
                0x00000000       0x10
 *(.gnu.attributes)
 .gnu.attributes
                0x00000000       0x10 obj/ff.o
 .gnu.attributes
                0x00000010       0x10 obj/mmc_xmega.o
 .gnu.attributes
                0x00000020       0x10 obj/graphicdraw.o
 .gnu.attributes
                0x00000030       0x10 obj/graphiclib.o
 .gnu.attributes
                0x00000040       0x10 obj/matrix4.o
 .gnu.attributes
                0x00000050       0x10 obj/maze.o
 .gnu.attributes
                0x00000060       0x10 obj/newmain.o
 .gnu.attributes
                0x00000070       0x10 obj/triangle.o
 .gnu.attributes
                0x00000080       0x10 obj/vector2.o
 .gnu.attributes
                0x00000090       0x10 obj/vector3.o
 .gnu.attributes
                0x000000a0       0x10 ../../pic32/compiler/pic32-tools/bin/../lib/gcc/pic32mx/4.5.2/crtbegin.o
 .gnu.attributes
                0x000000b0       0x10 ../../pic32/compiler/pic32-tools/bin/../lib/gcc/pic32mx/4.5.2/crtend.o
 .gnu.attributes
                0x000000c0       0x10 ../../pic32/compiler/pic32-tools/bin/../lib/gcc/pic32mx/4.5.2/../../../../pic32mx/lib\libm.a(lib_a-s_cos.o)
 .gnu.attributes
                0x000000d0       0x10 ../../pic32/compiler/pic32-tools/bin/../lib/gcc/pic32mx/4.5.2/../../../../pic32mx/lib\libm.a(lib_a-sf_cos.o)
 .gnu.attributes
                0x000000e0       0x10 ../../pic32/compiler/pic32-tools/bin/../lib/gcc/pic32mx/4.5.2/../../../../pic32mx/lib\libm.a(lib_a-sf_sin.o)
 .gnu.attributes
                0x000000f0       0x10 ../../pic32/compiler/pic32-tools/bin/../lib/gcc/pic32mx/4.5.2/../../../../pic32mx/lib\libm.a(lib_a-s_sin.o)
 .gnu.attributes
                0x00000100       0x10 ../../pic32/compiler/pic32-tools/bin/../lib/gcc/pic32mx/4.5.2/../../../../pic32mx/lib\libm.a(lib_a-s_tan.o)
 .gnu.attributes
                0x00000110       0x10 ../../pic32/compiler/pic32-tools/bin/../lib/gcc/pic32mx/4.5.2/../../../../pic32mx/lib\libm.a(lib_a-ef_rem_pio2.o)
 .gnu.attributes
                0x00000120       0x10 ../../pic32/compiler/pic32-tools/bin/../lib/gcc/pic32mx/4.5.2/../../../../pic32mx/lib\libm.a(lib_a-e_rem_pio2.o)
 .gnu.attributes
                0x00000130       0x10 ../../pic32/compiler/pic32-tools/bin/../lib/gcc/pic32mx/4.5.2/../../../../pic32mx/lib\libm.a(lib_a-k_cos.o)
 .gnu.attributes
                0x00000140       0x10 ../../pic32/compiler/pic32-tools/bin/../lib/gcc/pic32mx/4.5.2/../../../../pic32mx/lib\libm.a(lib_a-kf_cos.o)
 .gnu.attributes
                0x00000150       0x10 ../../pic32/compiler/pic32-tools/bin/../lib/gcc/pic32mx/4.5.2/../../../../pic32mx/lib\libm.a(lib_a-kf_rem_pio2.o)
 .gnu.attributes
                0x00000160       0x10 ../../pic32/compiler/pic32-tools/bin/../lib/gcc/pic32mx/4.5.2/../../../../pic32mx/lib\libm.a(lib_a-kf_sin.o)
 .gnu.attributes
                0x00000170       0x10 ../../pic32/compiler/pic32-tools/bin/../lib/gcc/pic32mx/4.5.2/../../../../pic32mx/lib\libm.a(lib_a-k_rem_pio2.o)
 .gnu.attributes
                0x00000180       0x10 ../../pic32/compiler/pic32-tools/bin/../lib/gcc/pic32mx/4.5.2/../../../../pic32mx/lib\libm.a(lib_a-k_sin.o)
 .gnu.attributes
                0x00000190       0x10 ../../pic32/compiler/pic32-tools/bin/../lib/gcc/pic32mx/4.5.2/../../../../pic32mx/lib\libm.a(lib_a-k_tan.o)
 .gnu.attributes
                0x000001a0       0x10 ../../pic32/compiler/pic32-tools/bin/../lib/gcc/pic32mx/4.5.2/../../../../pic32mx/lib\libm.a(lib_a-s_fabs.o)
 .gnu.attributes
                0x000001b0       0x10 ../../pic32/compiler/pic32-tools/bin/../lib/gcc/pic32mx/4.5.2/../../../../pic32mx/lib\libm.a(lib_a-sf_fabs.o)
 .gnu.attributes
                0x000001c0       0x10 ../../pic32/compiler/pic32-tools/bin/../lib/gcc/pic32mx/4.5.2/../../../../pic32mx/lib\libm.a(lib_a-sf_floor.o)
 .gnu.attributes
                0x000001d0       0x10 ../../pic32/compiler/pic32-tools/bin/../lib/gcc/pic32mx/4.5.2/../../../../pic32mx/lib\libm.a(lib_a-s_floor.o)
 .gnu.attributes
                0x000001e0       0x10 ../../pic32/compiler/pic32-tools/bin/../lib/gcc/pic32mx/4.5.2/../../../../pic32mx/lib\libm.a(lib_a-sf_scalbn.o)
 .gnu.attributes
                0x000001f0       0x10 ../../pic32/compiler/pic32-tools/bin/../lib/gcc/pic32mx/4.5.2/../../../../pic32mx/lib\libm.a(lib_a-s_scalbn.o)
 .gnu.attributes
                0x00000200       0x10 ../../pic32/compiler/pic32-tools/bin/../lib/gcc/pic32mx/4.5.2/../../../../pic32mx/lib\libm.a(lib_a-s_copysign.o)
 .gnu.attributes
                0x00000210       0x10 ../../pic32/compiler/pic32-tools/bin/../lib/gcc/pic32mx/4.5.2/../../../../pic32mx/lib\libm.a(lib_a-sf_copysign.o)
 .gnu.attributes
                0x00000220       0x10 ../../pic32/compiler/pic32-tools/bin/../lib/gcc/pic32mx/4.5.2\libgcc.a(_divdi3.o)
 .gnu.attributes
                0x00000230       0x10 ../../pic32/compiler/pic32-tools/bin/../lib/gcc/pic32mx/4.5.2\libgcc.a(addsf3.o)
 .gnu.attributes
                0x00000240       0x10 ../../pic32/compiler/pic32-tools/bin/../lib/gcc/pic32mx/4.5.2\libgcc.a(eqsf2.o)
 .gnu.attributes
                0x00000250       0x10 ../../pic32/compiler/pic32-tools/bin/../lib/gcc/pic32mx/4.5.2\libgcc.a(gesf2.o)
 .gnu.attributes
                0x00000260       0x10 ../../pic32/compiler/pic32-tools/bin/../lib/gcc/pic32mx/4.5.2\libgcc.a(mulsf3.o)
 .gnu.attributes
                0x00000270       0x10 ../../pic32/compiler/pic32-tools/bin/../lib/gcc/pic32mx/4.5.2\libgcc.a(subsf3.o)
 .gnu.attributes
                0x00000280       0x10 ../../pic32/compiler/pic32-tools/bin/../lib/gcc/pic32mx/4.5.2\libgcc.a(fixsfsi.o)
 .gnu.attributes
                0x00000290       0x10 ../../pic32/compiler/pic32-tools/bin/../lib/gcc/pic32mx/4.5.2\libgcc.a(floatsisf.o)
 .gnu.attributes
                0x000002a0       0x10 ../../pic32/compiler/pic32-tools/bin/../lib/gcc/pic32mx/4.5.2\libgcc.a(floatunsisf.o)
 .gnu.attributes
                0x000002b0       0x10 ../../pic32/compiler/pic32-tools/bin/../lib/gcc/pic32mx/4.5.2\libgcc.a(adddf3.o)
 .gnu.attributes
                0x000002c0       0x10 ../../pic32/compiler/pic32-tools/bin/../lib/gcc/pic32mx/4.5.2\libgcc.a(divdf3.o)
 .gnu.attributes
                0x000002d0       0x10 ../../pic32/compiler/pic32-tools/bin/../lib/gcc/pic32mx/4.5.2\libgcc.a(eqdf2.o)
 .gnu.attributes
                0x000002e0       0x10 ../../pic32/compiler/pic32-tools/bin/../lib/gcc/pic32mx/4.5.2\libgcc.a(gedf2.o)
 .gnu.attributes
                0x000002f0       0x10 ../../pic32/compiler/pic32-tools/bin/../lib/gcc/pic32mx/4.5.2\libgcc.a(muldf3.o)
 .gnu.attributes
                0x00000300       0x10 ../../pic32/compiler/pic32-tools/bin/../lib/gcc/pic32mx/4.5.2\libgcc.a(subdf3.o)
 .gnu.attributes
                0x00000310       0x10 ../../pic32/compiler/pic32-tools/bin/../lib/gcc/pic32mx/4.5.2\libgcc.a(fixdfsi.o)
 .gnu.attributes
                0x00000320       0x10 ../../pic32/compiler/pic32-tools/bin/../lib/gcc/pic32mx/4.5.2\libgcc.a(floatsidf.o)
 .gnu.attributes
                0x00000330       0x10 ../../pic32/compiler/pic32-tools/bin/../lib/gcc/pic32mx/4.5.2\libgcc.a(floatunsidf.o)
 .gnu.attributes
                0x00000340       0x10 ../../pic32/compiler/pic32-tools/bin/../lib/gcc/pic32mx/4.5.2\libgcc.a(extendsfdf2.o)
 .gnu.attributes
                0x00000350       0x10 ../../pic32/compiler/pic32-tools/bin/../lib/gcc/pic32mx/4.5.2\libgcc.a(truncdfsf2.o)
 .gnu.attributes
                0x00000360       0x10 ../../pic32/compiler/pic32-tools/bin/../lib/gcc/pic32mx/4.5.2/../../../../pic32mx/lib\libc.a(lib_a-assert.o)
 .gnu.attributes
                0x00000370       0x10 ../../pic32/compiler/pic32-tools/bin/../lib/gcc/pic32mx/4.5.2/../../../../pic32mx/lib\libc.a(lib_a-fiprintf.o)
 .gnu.attributes
                0x00000380       0x10 ../../pic32/compiler/pic32-tools/bin/../lib/gcc/pic32mx/4.5.2/../../../../pic32mx/lib\libc.a(lib_a-impure.o)
 .gnu.attributes
                0x00000390       0x10 ../../pic32/compiler/pic32-tools/bin/../lib/gcc/pic32mx/4.5.2/../../../../pic32mx/lib\libc.a(lib_a-printf.o)
 .gnu.attributes
                0x000003a0       0x10 ../../pic32/compiler/pic32-tools/bin/../lib/gcc/pic32mx/4.5.2/../../../../pic32mx/lib\libc.a(lib_a-vfiprintf.o)
 .gnu.attributes
                0x000003b0       0x10 ../../pic32/compiler/pic32-tools/bin/../lib/gcc/pic32mx/4.5.2/../../../../pic32mx/lib\libc.a(lib_a-vfprintf.o)
 .gnu.attributes
                0x000003c0       0x10 ../../pic32/compiler/pic32-tools/bin/../lib/gcc/pic32mx/4.5.2/../../../../pic32mx/lib\libc.a(lib_a-wsetup.o)
 .gnu.attributes
                0x000003d0       0x10 ../../pic32/compiler/pic32-tools/bin/../lib/gcc/pic32mx/4.5.2/../../../../pic32mx/lib\libc.a(lib_a-abort.o)
 .gnu.attributes
                0x000003e0       0x10 ../../pic32/compiler/pic32-tools/bin/../lib/gcc/pic32mx/4.5.2/../../../../pic32mx/lib\libc.a(lib_a-dtoa.o)
 .gnu.attributes
                0x000003f0       0x10 ../../pic32/compiler/pic32-tools/bin/../lib/gcc/pic32mx/4.5.2/../../../../pic32mx/lib\libc.a(lib_a-fflush.o)
 .gnu.attributes
                0x00000400       0x10 ../../pic32/compiler/pic32-tools/bin/../lib/gcc/pic32mx/4.5.2/../../../../pic32mx/lib\libc.a(lib_a-findfp.o)
 .gnu.attributes
                0x00000410       0x10 ../../pic32/compiler/pic32-tools/bin/../lib/gcc/pic32mx/4.5.2/../../../../pic32mx/lib\libc.a(lib_a-fputwc.o)
 .gnu.attributes
                0x00000420       0x10 ../../pic32/compiler/pic32-tools/bin/../lib/gcc/pic32mx/4.5.2/../../../../pic32mx/lib\libc.a(lib_a-freer.o)
 .gnu.attributes
                0x00000430       0x10 ../../pic32/compiler/pic32-tools/bin/../lib/gcc/pic32mx/4.5.2/../../../../pic32mx/lib\libc.a(lib_a-fvwrite.o)
 .gnu.attributes
                0x00000440       0x10 ../../pic32/compiler/pic32-tools/bin/../lib/gcc/pic32mx/4.5.2/../../../../pic32mx/lib\libc.a(lib_a-fwalk.o)
 .gnu.attributes
                0x00000450       0x10 ../../pic32/compiler/pic32-tools/bin/../lib/gcc/pic32mx/4.5.2/../../../../pic32mx/lib\libc.a(lib_a-locale.o)
 .gnu.attributes
                0x00000460       0x10 ../../pic32/compiler/pic32-tools/bin/../lib/gcc/pic32mx/4.5.2/../../../../pic32mx/lib\libc.a(lib_a-makebuf.o)
 .gnu.attributes
                0x00000470       0x10 ../../pic32/compiler/pic32-tools/bin/../lib/gcc/pic32mx/4.5.2/../../../../pic32mx/lib\libc.a(lib_a-mallocr.o)
 .gnu.attributes
                0x00000480       0x10 ../../pic32/compiler/pic32-tools/bin/../lib/gcc/pic32mx/4.5.2/../../../../pic32mx/lib\libc.a(lib_a-memchr.o)
 .gnu.attributes
                0x00000490       0x10 ../../pic32/compiler/pic32-tools/bin/../lib/gcc/pic32mx/4.5.2/../../../../pic32mx/lib\libc.a(lib_a-memcpy.o)
 .gnu.attributes
                0x000004a0       0x10 ../../pic32/compiler/pic32-tools/bin/../lib/gcc/pic32mx/4.5.2/../../../../pic32mx/lib\libc.a(lib_a-memmove.o)
 .gnu.attributes
                0x000004b0       0x10 ../../pic32/compiler/pic32-tools/bin/../lib/gcc/pic32mx/4.5.2/../../../../pic32mx/lib\libc.a(lib_a-memset.o)
 .gnu.attributes
                0x000004c0       0x10 ../../pic32/compiler/pic32-tools/bin/../lib/gcc/pic32mx/4.5.2/../../../../pic32mx/lib\libc.a(lib_a-mlock.o)
 .gnu.attributes
                0x000004d0       0x10 ../../pic32/compiler/pic32-tools/bin/../lib/gcc/pic32mx/4.5.2/../../../../pic32mx/lib\libc.a(lib_a-mprec.o)
 .gnu.attributes
                0x000004e0       0x10 ../../pic32/compiler/pic32-tools/bin/../lib/gcc/pic32mx/4.5.2/../../../../pic32mx/lib\libc.a(lib_a-reallocr.o)
 .gnu.attributes
                0x000004f0       0x10 ../../pic32/compiler/pic32-tools/bin/../lib/gcc/pic32mx/4.5.2/../../../../pic32mx/lib\libc.a(lib_a-sbrkr.o)
 .gnu.attributes
                0x00000500       0x10 ../../pic32/compiler/pic32-tools/bin/../lib/gcc/pic32mx/4.5.2/../../../../pic32mx/lib\libc.a(lib_a-s_fpclassify.o)
 .gnu.attributes
                0x00000510       0x10 ../../pic32/compiler/pic32-tools/bin/../lib/gcc/pic32mx/4.5.2/../../../../pic32mx/lib\libc.a(lib_a-signal.o)
 .gnu.attributes
                0x00000520       0x10 ../../pic32/compiler/pic32-tools/bin/../lib/gcc/pic32mx/4.5.2/../../../../pic32mx/lib\libc.a(lib_a-signalr.o)
 .gnu.attributes
                0x00000530       0x10 ../../pic32/compiler/pic32-tools/bin/../lib/gcc/pic32mx/4.5.2/../../../../pic32mx/lib\libc.a(lib_a-stdio.o)
 .gnu.attributes
                0x00000540       0x10 ../../pic32/compiler/pic32-tools/bin/../lib/gcc/pic32mx/4.5.2/../../../../pic32mx/lib\libc.a(lib_a-strcmp.o)
 .gnu.attributes
                0x00000550       0x10 ../../pic32/compiler/pic32-tools/bin/../lib/gcc/pic32mx/4.5.2/../../../../pic32mx/lib\libc.a(lib_a-strlen.o)
 .gnu.attributes
                0x00000560       0x10 ../../pic32/compiler/pic32-tools/bin/../lib/gcc/pic32mx/4.5.2/../../../../pic32mx/lib\libc.a(lib_a-wbuf.o)
 .gnu.attributes
                0x00000570       0x10 ../../pic32/compiler/pic32-tools/bin/../lib/gcc/pic32mx/4.5.2/../../../../pic32mx/lib\libc.a(lib_a-wcrtomb.o)
 .gnu.attributes
                0x00000580       0x10 ../../pic32/compiler/pic32-tools/bin/../lib/gcc/pic32mx/4.5.2/../../../../pic32mx/lib\libc.a(lib_a-wctomb_r.o)
 .gnu.attributes
                0x00000590       0x10 ../../pic32/compiler/pic32-tools/bin/../lib/gcc/pic32mx/4.5.2/../../../../pic32mx/lib\libc.a(lib_a-writer.o)
 .gnu.attributes
                0x000005a0       0x10 ../../pic32/compiler/pic32-tools/bin/../lib/gcc/pic32mx/4.5.2/../../../../pic32mx/lib\libc.a(lib_a-callocr.o)
 .gnu.attributes
                0x000005b0       0x10 ../../pic32/compiler/pic32-tools/bin/../lib/gcc/pic32mx/4.5.2/../../../../pic32mx/lib\libc.a(lib_a-closer.o)
 .gnu.attributes
                0x000005c0       0x10 ../../pic32/compiler/pic32-tools/bin/../lib/gcc/pic32mx/4.5.2/../../../../pic32mx/lib\libc.a(lib_a-fclose.o)
 .gnu.attributes
                0x000005d0       0x10 ../../pic32/compiler/pic32-tools/bin/../lib/gcc/pic32mx/4.5.2/../../../../pic32mx/lib\libc.a(lib_a-fstatr.o)
 .gnu.attributes
                0x000005e0       0x10 ../../pic32/compiler/pic32-tools/bin/../lib/gcc/pic32mx/4.5.2/../../../../pic32mx/lib\libc.a(lib_a-isattyr.o)
 .gnu.attributes
                0x000005f0       0x10 ../../pic32/compiler/pic32-tools/bin/../lib/gcc/pic32mx/4.5.2/../../../../pic32mx/lib\libc.a(lib_a-lseekr.o)
 .gnu.attributes
                0x00000600       0x10 ../../pic32/compiler/pic32-tools/bin/../lib/gcc/pic32mx/4.5.2/../../../../pic32mx/lib\libc.a(lib_a-readr.o)
 .gnu.attributes
                0x00000610       0x10 ../../pic32/compiler/pic32-tools/bin/../lib/gcc/pic32mx/4.5.2/../../../../pic32mx/lib\libc.a(lib_a-reent.o)
 .gnu.attributes
                0x00000620       0x10 ../../pic32/compiler/pic32-tools/bin/../lib/gcc/pic32mx/4.5.2/../../../../pic32mx/lib\libpic32.a(sbrk.o)
 .gnu.attributes
                0x00000630       0x10 ../../pic32/compiler/pic32-tools/bin/../lib/gcc/pic32mx/4.5.2/../../../../pic32mx/lib\libpic32.a(default-bootstrap-exception-handler.o)
 .gnu.attributes
                0x00000640       0x10 ../../pic32/compiler/pic32-tools/bin/../lib/gcc/pic32mx/4.5.2/../../../../pic32mx/lib\libpic32.a(default-on-reset.o)
 .gnu.attributes
                0x00000650       0x10 ../../pic32/compiler/pic32-tools/bin/../lib/gcc/pic32mx/4.5.2/../../../../pic32mx/lib\libpic32.a(default-on-bootstrap.o)
 .gnu.attributes
                0x00000660       0x10 ../../pic32/compiler/pic32-tools/bin/../lib/gcc/pic32mx/4.5.2/../../../../pic32mx/lib\libpic32.a(_exit.o)
 .gnu.attributes
                0x00000670       0x10 ../../pic32/compiler/pic32-tools/bin/../lib/gcc/pic32mx/4.5.2/../../../../pic32mx/lib\libpic32.a(isatty.o)
 .gnu.attributes
                0x00000680       0x10 ../../pic32/compiler/pic32-tools/bin/../lib/gcc/pic32mx/4.5.2/../../../../pic32mx/lib\libpic32.a(read.o)
 .gnu.attributes
                0x00000690       0x10 ../../pic32/compiler/pic32-tools/bin/../lib/gcc/pic32mx/4.5.2/../../../../pic32mx/lib\libpic32.a(write.o)
 .gnu.attributes
                0x000006a0       0x10 ../../pic32/compiler/pic32-tools/bin/../lib/gcc/pic32mx/4.5.2/../../../../pic32mx/lib\libpic32.a(lseek.o)
 .gnu.attributes
                0x000006b0       0x10 ../../pic32/compiler/pic32-tools/bin/../lib/gcc/pic32mx/4.5.2/../../../../pic32mx/lib\libpic32.a(close.o)
 .gnu.attributes
                0x000006c0       0x10 ../../pic32/compiler/pic32-tools/bin/../lib/gcc/pic32mx/4.5.2/../../../../pic32mx/lib\libpic32.a(fstat.o)
 .gnu.attributes
                0x000006d0       0x10 ../../pic32/compiler/pic32-tools/bin/../lib/gcc/pic32mx/4.5.2/../../../../pic32mx/lib\libpic32.a(kill.o)
 .gnu.attributes
                0x000006e0       0x10 ../../pic32/compiler/pic32-tools/bin/../lib/gcc/pic32mx/4.5.2/../../../../pic32mx/lib\libpic32.a(getpid.o)
 .gnu.attributes
                0x000006f0       0x10 ../../pic32/compiler/pic32-tools/bin/../lib/gcc/pic32mx/4.5.2/../../../../pic32mx/lib\libpic32.a(xc32_uart.o)
 .gnu.attributes
                0x00000700       0x10 ../../pic32/compiler/pic32-tools/bin/../lib/gcc/pic32mx/4.5.2/../../../../pic32mx/lib\libpic32.a(_mon_putc.o)
 .gnu.attributes
                0x00000710       0x10 ../../pic32/compiler/pic32-tools/bin/../lib/gcc/pic32mx/4.5.2/../../../../pic32mx/lib\libpic32.a(defaultinterrupt.o)
 .gnu.attributes
                0x00000720       0x10 ../../pic32/compiler/pic32-tools/bin/../lib/gcc/pic32mx/4.5.2\libgcc.a(_udivdi3.o)
 .gnu.attributes
                0x00000730       0x10 ../../pic32/compiler/pic32-tools/bin/../lib/gcc/pic32mx/4.5.2\libgcc.a(_umoddi3.o)
 .gnu.attributes
                0x00000740       0x10 ../../pic32/compiler/pic32-tools/bin/../lib/gcc/pic32mx/4.5.2\libgcc.a(ledf2.o)
 .gnu.attributes
                0x00000750       0x10 ../../pic32/compiler/pic32-tools/bin/../lib/gcc/pic32mx/4.5.2/../../../../pic32mx/lib\libmchp_peripheral_32MX250F128B.a(osc_config_lib.o)
 .gnu.attributes
                0x00000760       0x10 ../../pic32/compiler/pic32-tools/bin/../lib/gcc/pic32mx/4.5.2/../../../../pic32mx/lib\libmchp_peripheral_32MX250F128B.a(int_disable_interrupts_lib.o)
 .gnu.attributes
                0x00000770       0x10 ../../pic32/compiler/pic32-tools/bin/../lib/gcc/pic32mx/4.5.2/../../../../pic32mx/lib\libmchp_peripheral_32MX250F128B.a(int_restore_interrupts_lib.o)
 .gnu.attributes
                0x00000780       0x10 ../../pic32/compiler/pic32-tools/bin/../lib/gcc/pic32mx/4.5.2/../../../../pic32mx/lib\libmchp_peripheral_32MX250F128B.a(spi_getc_spi2_lib_legacy.o)
 .gnu.attributes
                0x00000790       0x10 ../../pic32/compiler/pic32-tools/bin/../lib/gcc/pic32mx/4.5.2/../../../../pic32mx/lib\libmchp_peripheral_32MX250F128B.a(spi_open_spi2_lib_legacy.o)
 .gnu.attributes
                0x000007a0       0x10 ../../pic32/compiler/pic32-tools/bin/../lib/gcc/pic32mx/4.5.2/../../../../pic32mx/lib\libmchp_peripheral_32MX250F128B.a(spi_brg_tbl_lib_legacy.o)
 .gnu.attributes
                0x000007b0       0x10 ../../pic32/compiler/pic32-tools/bin/../lib/gcc/pic32mx/4.5.2/../../../../pic32mx/lib\libmchp_peripheral_32MX250F128B.a(dma_chn_clr_ev_flags_lib.o)
 .gnu.attributes
                0x000007c0       0x10 ../../pic32/compiler/pic32-tools/bin/../lib/gcc/pic32mx/4.5.2/../../../../pic32mx/lib\libmchp_peripheral_32MX250F128B.a(dma_chn_open_lib.o)
 .gnu.attributes
                0x000007d0       0x10 ../../pic32/compiler/pic32-tools/bin/../lib/gcc/pic32mx/4.5.2/../../../../pic32mx/lib\libmchp_peripheral_32MX250F128B.a(dma_chn_enable_lib.o)
 .gnu.attributes
                0x000007e0       0x10 ../../pic32/compiler/pic32-tools/bin/../lib/gcc/pic32mx/4.5.2/../../../../pic32mx/lib\libmchp_peripheral_32MX250F128B.a(dma_chn_get_ev_flags_lib.o)
 .gnu.attributes
                0x000007f0       0x10 ../../pic32/compiler/pic32-tools/bin/../lib/gcc/pic32mx/4.5.2/../../../../pic32mx/lib\libmchp_peripheral_32MX250F128B.a(dma_chn_write_event_control_flags_lib.o)
 .gnu.attributes
                0x00000800       0x10 ../../pic32/compiler/pic32-tools/bin/../lib/gcc/pic32mx/4.5.2/../../../../pic32mx/lib\libmchp_peripheral_32MX250F128B.a(dma_chn_set_txfer_lib.o)
 .gnu.attributes
                0x00000810       0x10 ../../pic32/compiler/pic32-tools/bin/../lib/gcc/pic32mx/4.5.2/../../../../pic32mx/lib\libmchp_peripheral_32MX250F128B.a(dma_chn_start_txfer_lib.o)
 .gnu.attributes
                0x00000820       0x10 ../../pic32/compiler/pic32-tools/bin/../lib/gcc/pic32mx/4.5.2/../../../../pic32mx/lib\libmchp_peripheral_32MX250F128B.a(dma_reg_map_tbl_lib.o)
 .gnu.attributes
                0x00000830       0x10 ../../pic32/compiler/pic32-tools/bin/../lib/gcc/pic32mx/4.5.2/../../../../pic32mx/lib\libmchp_peripheral_32MX250F128B.a(int_tbl_lib.o)
 .gnu.attributes
                0x00000840       0x10 ../../pic32/compiler/pic32-tools/bin/../lib/gcc/pic32mx/4.5.2/../../../../pic32mx/lib\libc.a(lib_a-errno.o)
LOAD ../../pic32/compiler/pic32-tools/bin/../lib/gcc/pic32mx/4.5.2\libgcc.a
START GROUP
LOAD ../../pic32/compiler/pic32-tools/bin/../lib/gcc/pic32mx/4.5.2/../../../../pic32mx/lib\libc.a
LOAD ../../pic32/compiler/pic32-tools/bin/../lib/gcc/pic32mx/4.5.2/../../../../pic32mx/lib\libsupc++.a
LOAD ../../pic32/compiler/pic32-tools/bin/../lib/gcc/pic32mx/4.5.2/../../../../pic32mx/lib\libpic32.a
LOAD ../../pic32/compiler/pic32-tools/bin/../lib/gcc/pic32mx/4.5.2\libgcc.a
LOAD ../../pic32/compiler/pic32-tools/bin/../lib/gcc/pic32mx/4.5.2/../../../../pic32mx/lib\libmchp_peripheral.a
LOAD ../../pic32/compiler/pic32-tools/bin/../lib/gcc/pic32mx/4.5.2/../../../../pic32mx/lib\libmchp_peripheral_32MX250F128B.a
END GROUP
LOAD ../../pic32/compiler/pic32-tools/bin/../lib/gcc/pic32mx/4.5.2\libgcc.a
LOAD ../../pic32/compiler/pic32-tools/bin/../lib/gcc/pic32mx/4.5.2/../../../../pic32mx/lib\debug-exception-return.o
OUTPUT(bin/EXAMPLE1.elf elf32-tradlittlemips)
LOAD stack
LOAD data_init

.reginfo        0x00000000       0x18
 .reginfo       0x00000000       0x18 obj/ff.o

.stack          0xa0005900      0x400
 .stack         0xa0005900      0x400 stack

.bss            0xa00000c4     0x4d44
 .bss           0xa00000c4     0x41fc obj/newmain.o
                0xa00000c4                pointvec
                0xa0001ce4                polyvec
                0xa0002af4                map
 .bss           0xa00042c0      0xb48 obj/maze.o
                0xa00042c0                candidi

.data.impure_data.impure_data
                0xa0004e08      0x418
 .data.impure_data.impure_data
                0xa0004e08      0x418 ../../pic32/compiler/pic32-tools/bin/../lib/gcc/pic32mx/4.5.2/../../../../pic32mx/lib\libc.a(lib_a-impure.o)

.data.__malloc_av_.__malloc_av_
                0xa0005220      0x408
 .data.__malloc_av_.__malloc_av_
                0xa0005220      0x408 ../../pic32/compiler/pic32-tools/bin/../lib/gcc/pic32mx/4.5.2/../../../../pic32mx/lib\libc.a(lib_a-mallocr.o)
                0xa0005220                __malloc_av_

.data.lconv.lconv
                0xa0005628       0x38
 .data.lconv.lconv
                0xa0005628       0x38 ../../pic32/compiler/pic32-tools/bin/../lib/gcc/pic32mx/4.5.2/../../../../pic32mx/lib\libc.a(lib_a-locale.o)

.bss.__malloc_current_mallinfo.__malloc_current_mallinfo
                0xa0005660       0x28
 .bss.__malloc_current_mallinfo.__malloc_current_mallinfo
                0xa0005660       0x28 ../../pic32/compiler/pic32-tools/bin/../lib/gcc/pic32mx/4.5.2/../../../../pic32mx/lib\libc.a(lib_a-mallocr.o)
                0xa0005660                __malloc_current_mallinfo

.bss            0xa0005688       0x20
 .bss           0xa0005688       0x20 ../../pic32/compiler/pic32-tools/bin/../lib/gcc/pic32mx/4.5.2/crtbegin.o

.data.lc_ctype_charset.lc_ctype_charset
                0xa00056a8       0x20
 .data.lc_ctype_charset.lc_ctype_charset
                0xa00056a8       0x20 ../../pic32/compiler/pic32-tools/bin/../lib/gcc/pic32mx/4.5.2/../../../../pic32mx/lib\libc.a(lib_a-locale.o)

.bss.mem.1180.mem
                0xa00056c8       0x18
 .bss.mem.1180.mem
                0xa00056c8       0x18 ../../pic32/compiler/pic32-tools/bin/../lib/gcc/pic32mx/4.5.2/../../../../pic32mx/lib\libpic32.a(sbrk.o)

.bss.curbrk.curbrk
                0xa00056e0        0x4
 .bss.curbrk.curbrk
                0xa00056e0        0x4 ../../pic32/compiler/pic32-tools/bin/../lib/gcc/pic32mx/4.5.2/../../../../pic32mx/lib\libpic32.a(sbrk.o)

._debug_exception
                0xbfc00480       0x24
 ._debug_exception
                0xbfc00480       0x24 ../../pic32/compiler/pic32-tools/bin/../lib/gcc/pic32mx/4.5.2/../../../../pic32mx/lib\debug-exception-return.o
                0xbfc00480                __DbgExecReturn

.text           0x9d0074e4     0x36a4
 .text          0x9d0074e4     0x36a4 obj/newmain.o
                0x9d0074e4                init()
                0x9d0076a8                main_3d()
                0x9d00a958                main

.rodata         0x9d00ab88     0x1c28
 .rodata        0x9d00ab88     0x1c28 obj/graphicdraw.o

.text._vfprintf_r
                0x9d00c7b0     0x1b10
 .text._vfprintf_r
                0x9d00c7b0     0x1b10 ../../pic32/compiler/pic32-tools/bin/../lib/gcc/pic32mx/4.5.2/../../../../pic32mx/lib\libc.a(lib_a-vfprintf.o)
                0x9d00c7b0                _vfprintf_r

.text           0x9d00e2c0     0x1590
 .text          0x9d00e2c0     0x1590 obj/maze.o
                0x9d00e2c0                myRand(int)
                0x9d00e340                map::printmap(graphiclib&)
                0x9d00e568                map::dig(vector2&, graphiclib&)
                0x9d00e7c8                map::calcstart(vector2_t*)
                0x9d00ebf0                map::initmap()
                0x9d00ec40                map::mazemake(int, vector2 const&, graphiclib&)
                0x9d00f19c                map::genepoints(vector3_t*, vector3 const&)
                0x9d00f4b8                map::genepoly(int (*) [3], vector3 const&)

.text._dtoa_r   0x9d00f850     0x1350
 .text._dtoa_r  0x9d00f850     0x1350 ../../pic32/compiler/pic32-tools/bin/../lib/gcc/pic32mx/4.5.2/../../../../pic32mx/lib\libc.a(lib_a-dtoa.o)
                0x9d00f850                _dtoa_r

.text           0x9d010ba0     0x10c4
 .text          0x9d010ba0     0x10c4 obj/graphicdraw.o
                0x9d010ba0                graphiclib::screenclear()
                0x9d010ba8                graphiclib::setPoint(vector2)
                0x9d010bb0                graphiclib::fillcircle(vector2 const&, int)
                0x9d010d04                graphiclib::circle(vector2 const&, int)
                0x9d011028                graphiclib::calc_seq_code(vector2)
                0x9d011068                graphiclib::calc_intsec_x(vector2, vector2, int, vector2&)
                0x9d0110d0                graphiclib::calc_intsec_y(vector2, vector2, int, vector2&)
                0x9d011138                graphiclib::calc_clipped_point(int, vector2, vector2, vector2&)
                0x9d011394                graphiclib::clipping(vector2&, vector2&)
                0x9d011508                graphiclib::Line(vector2, vector2)
                0x9d0117e8                graphiclib::Line(vector3 const&, vector3 const&)
                0x9d011870                graphiclib::textSize(int)
                0x9d01191c                graphiclib::get_font(char)
                0x9d011958                graphiclib::drawFont(vector2 const&, char)
                0x9d011b94                graphiclib::print_string(char const*)

.text._vfiprintf_r
                0x9d011c64      0xde4
 .text._vfiprintf_r
                0x9d011c64      0xde4 ../../pic32/compiler/pic32-tools/bin/../lib/gcc/pic32mx/4.5.2/../../../../pic32mx/lib\libc.a(lib_a-vfiprintf.o)
                0x9d011c64                _vfiprintf_r

.text           0x9d012a48      0xdd8
 .text          0x9d012a48      0xdd8 obj/matrix4.o
                0x9d012a48                loadPerspective(int, int, int, int, int, int)
                0x9d012c64                lookat(vector3, vector3)
                0x9d0133ac                rotatex(unsigned short)
                0x9d0134cc                rotatey(unsigned short)
                0x9d0135ec                rotatez(unsigned short)
                0x9d01372c                translation(vector3)
                0x9d013784                magnify(int)
                0x9d0137d4                magnify_y(int)

.text.__kernel_rem_pio2
                0x9d013820      0xc50
 .text.__kernel_rem_pio2
                0x9d013820      0xc50 ../../pic32/compiler/pic32-tools/bin/../lib/gcc/pic32mx/4.5.2/../../../../pic32mx/lib\libm.a(lib_a-k_rem_pio2.o)
                0x9d013820                __kernel_rem_pio2

.dinit          0x9d014470      0xad0
 .dinit         0x9d014470      0xad0 data_init

.text.__kernel_rem_pio2f
                0x9d014f40      0xa30
 .text.__kernel_rem_pio2f
                0x9d014f40      0xa30 ../../pic32/compiler/pic32-tools/bin/../lib/gcc/pic32mx/4.5.2/../../../../pic32mx/lib\libm.a(lib_a-kf_rem_pio2.o)
                0x9d014f40                __kernel_rem_pio2f

.text           0x9d015970     0x18fc
 .text          0x9d015970      0x96c obj/triangle.o
                0x9d015970                triangle::draw(int*, graphiclib&)
                0x9d015cb4                triangle::triangle_set(vector3*, unsigned char)
                0x9d0162cc                triangle::cymin()
                0x9d0162d4                triangle::cymax()
 .text          0x9d0162dc      0x7d4 ../../pic32/compiler/pic32-tools/bin/../lib/gcc/pic32mx/4.5.2\libgcc.a(subdf3.o)
                0x9d0162dc                __subdf3
 .text          0x9d016ab0      0x7bc ../../pic32/compiler/pic32-tools/bin/../lib/gcc/pic32mx/4.5.2\libgcc.a(adddf3.o)
                0x9d016ab0                __adddf3

.text.__ieee754_rem_pio2
                0x9d01726c      0x6f4
 .text.__ieee754_rem_pio2
                0x9d01726c      0x6f4 ../../pic32/compiler/pic32-tools/bin/../lib/gcc/pic32mx/4.5.2/../../../../pic32mx/lib\libm.a(lib_a-e_rem_pio2.o)
                0x9d01726c                __ieee754_rem_pio2

.text.__kernel_tan
                0x9d017960      0x688
 .text.__kernel_tan
                0x9d017960      0x688 ../../pic32/compiler/pic32-tools/bin/../lib/gcc/pic32mx/4.5.2/../../../../pic32mx/lib\libm.a(lib_a-k_tan.o)
                0x9d017960                __kernel_tan

.text           0x9d017fe8      0x684
 .text          0x9d017fe8      0x684 ../../pic32/compiler/pic32-tools/bin/../lib/gcc/pic32mx/4.5.2\libgcc.a(divdf3.o)
                0x9d017fe8                __divdf3

.text._malloc_r
                0x9d01866c      0x664
 .text._malloc_r
                0x9d01866c      0x664 ../../pic32/compiler/pic32-tools/bin/../lib/gcc/pic32mx/4.5.2/../../../../pic32mx/lib\libc.a(lib_a-mallocr.o)
                0x9d01866c                _malloc_r

.text._realloc_r
                0x9d018cd0      0x514
 .text._realloc_r
                0x9d018cd0      0x514 ../../pic32/compiler/pic32-tools/bin/../lib/gcc/pic32mx/4.5.2/../../../../pic32mx/lib\libc.a(lib_a-reallocr.o)
                0x9d018cd0                _realloc_r

.text.__ieee754_rem_pio2f
                0x9d0191e4      0x4e0
 .text.__ieee754_rem_pio2f
                0x9d0191e4      0x4e0 ../../pic32/compiler/pic32-tools/bin/../lib/gcc/pic32mx/4.5.2/../../../../pic32mx/lib\libm.a(lib_a-ef_rem_pio2.o)
                0x9d0191e4                __ieee754_rem_pio2f

.text.__sfvwrite_r
                0x9d0196c4      0x4d0
 .text.__sfvwrite_r
                0x9d0196c4      0x4d0 ../../pic32/compiler/pic32-tools/bin/../lib/gcc/pic32mx/4.5.2/../../../../pic32mx/lib\libc.a(lib_a-fvwrite.o)
                0x9d0196c4                __sfvwrite_r

.text           0x9d019b94     0x1a4c
 .text          0x9d019b94      0x494 ../../pic32/compiler/pic32-tools/bin/../lib/gcc/pic32mx/4.5.2\libgcc.a(subsf3.o)
                0x9d019b94                __subsf3
 .text          0x9d01a028      0x48c ../../pic32/compiler/pic32-tools/bin/../lib/gcc/pic32mx/4.5.2\libgcc.a(_divdi3.o)
                0x9d01a028                __divdi3
 .text          0x9d01a4b4      0x480 ../../pic32/compiler/pic32-tools/bin/../lib/gcc/pic32mx/4.5.2\libgcc.a(addsf3.o)
                0x9d01a4b4                __addsf3
 .text          0x9d01a934      0x478 ../../pic32/compiler/pic32-tools/bin/../lib/gcc/pic32mx/4.5.2\libgcc.a(muldf3.o)
                0x9d01a934                __muldf3
 .text          0x9d01adac      0x42c ../../pic32/compiler/pic32-tools/bin/../lib/gcc/pic32mx/4.5.2\libgcc.a(_udivdi3.o)
                0x9d01adac                __udivdi3
 .text          0x9d01b1d8      0x408 ../../pic32/compiler/pic32-tools/bin/../lib/gcc/pic32mx/4.5.2\libgcc.a(_umoddi3.o)
                0x9d01b1d8                __umoddi3

.text.__kernel_cos
                0x9d01b5e0      0x35c
 .text.__kernel_cos
                0x9d01b5e0      0x35c ../../pic32/compiler/pic32-tools/bin/../lib/gcc/pic32mx/4.5.2/../../../../pic32mx/lib\libm.a(lib_a-k_cos.o)
                0x9d01b5e0                __kernel_cos

.rodata.two_over_pi.two_over_pi
                0x9d01b93c      0x318
 .rodata.two_over_pi.two_over_pi
                0x9d01b93c      0x318 ../../pic32/compiler/pic32-tools/bin/../lib/gcc/pic32mx/4.5.2/../../../../pic32mx/lib\libm.a(lib_a-ef_rem_pio2.o)

.text.__kernel_sin
                0x9d01bc54      0x2b0
 .text.__kernel_sin
                0x9d01bc54      0x2b0 ../../pic32/compiler/pic32-tools/bin/../lib/gcc/pic32mx/4.5.2/../../../../pic32mx/lib\libm.a(lib_a-k_sin.o)
                0x9d01bc54                __kernel_sin

.text           0x9d01bf04      0x298
 .text          0x9d01bf04      0x298 ../../pic32/compiler/pic32-tools/bin/../lib/gcc/pic32mx/4.5.2\libgcc.a(mulsf3.o)
                0x9d01bf04                __mulsf3

.text._free_r   0x9d01c19c      0x270
 .text._free_r  0x9d01c19c      0x270 ../../pic32/compiler/pic32-tools/bin/../lib/gcc/pic32mx/4.5.2/../../../../pic32mx/lib\libc.a(lib_a-freer.o)
                0x9d01c19c                _free_r

.text._fflush_r
                0x9d01c40c      0x234
 .text._fflush_r
                0x9d01c40c      0x234 ../../pic32/compiler/pic32-tools/bin/../lib/gcc/pic32mx/4.5.2/../../../../pic32mx/lib\libc.a(lib_a-fflush.o)
                0x9d01c40c                _fflush_r

.text.__kernel_cosf
                0x9d01c640      0x220
 .text.__kernel_cosf
                0x9d01c640      0x220 ../../pic32/compiler/pic32-tools/bin/../lib/gcc/pic32mx/4.5.2/../../../../pic32mx/lib\libm.a(lib_a-kf_cos.o)
                0x9d01c640                __kernel_cosf

.text.quorem    0x9d01c860      0x204
 .text.quorem   0x9d01c860      0x204 ../../pic32/compiler/pic32-tools/bin/../lib/gcc/pic32mx/4.5.2/../../../../pic32mx/lib\libc.a(lib_a-dtoa.o)

.kseg0_program_mem
                0x9d01ca64      0x200
 .kseg0_program_mem
                0x9d01ca64      0x200 obj/crt0.o

.text.__multiply
                0x9d01cc64      0x1e4
 .text.__multiply
                0x9d01cc64      0x1e4 ../../pic32/compiler/pic32-tools/bin/../lib/gcc/pic32mx/4.5.2/../../../../pic32mx/lib\libc.a(lib_a-mprec.o)
                0x9d01cc64                __multiply

.text.__kernel_sinf
                0x9d01ce48      0x1c4
 .text.__kernel_sinf
                0x9d01ce48      0x1c4 ../../pic32/compiler/pic32-tools/bin/../lib/gcc/pic32mx/4.5.2/../../../../pic32mx/lib\libm.a(lib_a-kf_sin.o)
                0x9d01ce48                __kernel_sinf

.text.floor     0x9d01d00c      0x1c4
 .text.floor    0x9d01d00c      0x1c4 ../../pic32/compiler/pic32-tools/bin/../lib/gcc/pic32mx/4.5.2/../../../../pic32mx/lib\libm.a(lib_a-s_floor.o)
                0x9d01d00c                floor

.text           0x9d01d1d0      0x1a8
 .text          0x9d01d1d0      0x1a8 obj/vector2.o
                0x9d01d1d0                vector2::vector2()
                0x9d01d1d0                vector2::vector2()
                0x9d01d1dc                vector2::vector2(int, int)
                0x9d01d1dc                vector2::vector2(int, int)
                0x9d01d1e8                vector2::vector2(vector2 const&)
                0x9d01d1e8                vector2::vector2(vector2 const&)
                0x9d01d1fc                vector2::operator=(vector2 const&)
                0x9d01d214                vector2::operator+()
                0x9d01d22c                vector2::operator-()
                0x9d01d24c                vector2::operator+=(vector2 const&)
                0x9d01d274                vector2::operator-=(vector2 const&)
                0x9d01d29c                operator+(vector2 const&, vector2 const&)
                0x9d01d2cc                operator*(vector2 const&, int)
                0x9d01d2f4                operator-(vector2 const&, vector2 const&)
                0x9d01d324                vector2::operator*=(int)
                0x9d01d364                vector2::print()

.text.__sinit   0x9d01d378      0x194
 .text.__sinit  0x9d01d378      0x194 ../../pic32/compiler/pic32-tools/bin/../lib/gcc/pic32mx/4.5.2/../../../../pic32mx/lib\libc.a(lib_a-findfp.o)
                0x9d01d378                __sinit

.text._sbrk_init
                0x9d01d50c      0x194
 .text._sbrk_init
                0x9d01d50c      0x194 ../../pic32/compiler/pic32-tools/bin/../lib/gcc/pic32mx/4.5.2/../../../../pic32mx/lib\libpic32.a(sbrk.o)
                0x9d01d50c                _sbrk_init

.text._fputwc_r
                0x9d01d6a0      0x184
 .text._fputwc_r
                0x9d01d6a0      0x184 ../../pic32/compiler/pic32-tools/bin/../lib/gcc/pic32mx/4.5.2/../../../../pic32mx/lib\libc.a(lib_a-fputwc.o)
                0x9d01d6a0                _fputwc_r

.text.__mdiff   0x9d01d824      0x180
 .text.__mdiff  0x9d01d824      0x180 ../../pic32/compiler/pic32-tools/bin/../lib/gcc/pic32mx/4.5.2/../../../../pic32mx/lib\libc.a(lib_a-mprec.o)
                0x9d01d824                __mdiff

.text           0x9d01d9a4      0x178
 .text          0x9d01d9a4      0x178 ../../pic32/compiler/pic32-tools/bin/../lib/gcc/pic32mx/4.5.2\libgcc.a(truncdfsf2.o)
                0x9d01d9a4                __truncdfsf2

.text.__smakebuf_r
                0x9d01db1c      0x174
 .text.__smakebuf_r
                0x9d01db1c      0x174 ../../pic32/compiler/pic32-tools/bin/../lib/gcc/pic32mx/4.5.2/../../../../pic32mx/lib\libc.a(lib_a-makebuf.o)
                0x9d01db1c                __smakebuf_r

.text.read      0x9d01dc90      0x174
 .text.read     0x9d01dc90      0x174 ../../pic32/compiler/pic32-tools/bin/../lib/gcc/pic32mx/4.5.2/../../../../pic32mx/lib\libpic32.a(read.o)
                0x9d01dc90                read

.text.scalbn    0x9d01de04      0x168
 .text.scalbn   0x9d01de04      0x168 ../../pic32/compiler/pic32-tools/bin/../lib/gcc/pic32mx/4.5.2/../../../../pic32mx/lib\libm.a(lib_a-s_scalbn.o)
                0x9d01de04                scalbn

.text.OSCConfig
                0x9d01df6c      0x168
 .text.OSCConfig
                0x9d01df6c      0x168 ../../pic32/compiler/pic32-tools/bin/../lib/gcc/pic32mx/4.5.2/../../../../pic32mx/lib\libmchp_peripheral_32MX250F128B.a(osc_config_lib.o)
                0x9d01df6c                OSCConfig

.text.__swbuf_r
                0x9d01e0d4      0x164
 .text.__swbuf_r
                0x9d01e0d4      0x164 ../../pic32/compiler/pic32-tools/bin/../lib/gcc/pic32mx/4.5.2/../../../../pic32mx/lib\libc.a(lib_a-wbuf.o)
                0x9d01e0d4                __swbuf_r

.text.__d2b     0x9d01e238      0x138
 .text.__d2b    0x9d01e238      0x138 ../../pic32/compiler/pic32-tools/bin/../lib/gcc/pic32mx/4.5.2/../../../../pic32mx/lib\libc.a(lib_a-mprec.o)
                0x9d01e238                __d2b

.text.__lshift  0x9d01e370      0x130
 .text.__lshift
                0x9d01e370      0x130 ../../pic32/compiler/pic32-tools/bin/../lib/gcc/pic32mx/4.5.2/../../../../pic32mx/lib\libc.a(lib_a-mprec.o)
                0x9d01e370                __lshift

.text.scalbnf   0x9d01e4a0      0x12c
 .text.scalbnf  0x9d01e4a0      0x12c ../../pic32/compiler/pic32-tools/bin/../lib/gcc/pic32mx/4.5.2/../../../../pic32mx/lib\libm.a(lib_a-sf_scalbn.o)
                0x9d01e4a0                scalbnf

.text.__swsetup_r
                0x9d01e5cc      0x128
 .text.__swsetup_r
                0x9d01e5cc      0x128 ../../pic32/compiler/pic32-tools/bin/../lib/gcc/pic32mx/4.5.2/../../../../pic32mx/lib\libc.a(lib_a-wsetup.o)
                0x9d01e5cc                __swsetup_r

.text._malloc_trim_r
                0x9d01e6f4      0x11c
 .text._malloc_trim_r
                0x9d01e6f4      0x11c ../../pic32/compiler/pic32-tools/bin/../lib/gcc/pic32mx/4.5.2/../../../../pic32mx/lib\libc.a(lib_a-freer.o)
                0x9d01e6f4                _malloc_trim_r

.text           0x9d01e810      0x21c
 .text          0x9d01e810      0x110 ../../pic32/compiler/pic32-tools/bin/../lib/gcc/pic32mx/4.5.2/crtbegin.o
 .text          0x9d01e920      0x10c ../../pic32/compiler/pic32-tools/bin/../lib/gcc/pic32mx/4.5.2\libgcc.a(gedf2.o)
                0x9d01e920                __gedf2
                0x9d01e920                __gtdf2

.text.__pow5mult
                0x9d01ea2c      0x10c
 .text.__pow5mult
                0x9d01ea2c      0x10c ../../pic32/compiler/pic32-tools/bin/../lib/gcc/pic32mx/4.5.2/../../../../pic32mx/lib\libc.a(lib_a-mprec.o)
                0x9d01ea2c                __pow5mult

.text           0x9d01eb38      0x10c
 .text          0x9d01eb38      0x10c ../../pic32/compiler/pic32-tools/bin/../lib/gcc/pic32mx/4.5.2\libgcc.a(ledf2.o)
                0x9d01eb38                __ledf2
                0x9d01eb38                __ltdf2

.rodata.two_over_pi.two_over_pi
                0x9d01ec44      0x108
 .rodata.two_over_pi.two_over_pi
                0x9d01ec44      0x108 ../../pic32/compiler/pic32-tools/bin/../lib/gcc/pic32mx/4.5.2/../../../../pic32mx/lib\libm.a(lib_a-e_rem_pio2.o)

.text.__multadd
                0x9d01ed4c      0x104
 .text.__multadd
                0x9d01ed4c      0x104 ../../pic32/compiler/pic32-tools/bin/../lib/gcc/pic32mx/4.5.2/../../../../pic32mx/lib\libc.a(lib_a-mprec.o)
                0x9d01ed4c                __multadd

.text.__sprint_r
                0x9d01ee50      0x100
 .text.__sprint_r
                0x9d01ee50      0x100 ../../pic32/compiler/pic32-tools/bin/../lib/gcc/pic32mx/4.5.2/../../../../pic32mx/lib\libc.a(lib_a-vfiprintf.o)
                0x9d01ee50                __sprint_r

.text           0x9d01ef50       0xf8
 .text          0x9d01ef50       0xf8 obj/vector3.o
                0x9d01ef50                vector3::abs()

.text.floorf    0x9d01f048       0xf8
 .text.floorf   0x9d01f048       0xf8 ../../pic32/compiler/pic32-tools/bin/../lib/gcc/pic32mx/4.5.2/../../../../pic32mx/lib\libm.a(lib_a-sf_floor.o)
                0x9d01f048                floorf

.text           0x9d01f140       0xf4
 .text          0x9d01f140       0xf4 ../../pic32/compiler/pic32-tools/bin/../lib/gcc/pic32mx/4.5.2\libgcc.a(floatsisf.o)
                0x9d01f140                __floatsisf

.text._fclose_r
                0x9d01f234       0xf4
 .text._fclose_r
                0x9d01f234       0xf4 ../../pic32/compiler/pic32-tools/bin/../lib/gcc/pic32mx/4.5.2/../../../../pic32mx/lib\libc.a(lib_a-fclose.o)
                0x9d01f234                _fclose_r

.text.sin       0x9d01f328       0xec
 .text.sin      0x9d01f328       0xec ../../pic32/compiler/pic32-tools/bin/../lib/gcc/pic32mx/4.5.2/../../../../pic32mx/lib\libm.a(lib_a-s_sin.o)
                0x9d01f328                sin

.text.cos       0x9d01f414       0xe4
 .text.cos      0x9d01f414       0xe4 ../../pic32/compiler/pic32-tools/bin/../lib/gcc/pic32mx/4.5.2/../../../../pic32mx/lib\libm.a(lib_a-s_cos.o)
                0x9d01f414                cos

.text           0x9d01f4f8      0x1b4
 .text          0x9d01f4f8       0xe4 ../../pic32/compiler/pic32-tools/bin/../lib/gcc/pic32mx/4.5.2\libgcc.a(floatunsisf.o)
                0x9d01f4f8                __floatunsisf
 .text          0x9d01f5dc       0xd0 ../../pic32/compiler/pic32-tools/bin/../lib/gcc/pic32mx/4.5.2\libgcc.a(gesf2.o)
                0x9d01f5dc                __gesf2
                0x9d01f5dc                __gtsf2

.text._mon_putc
                0x9d01f6ac       0xd0
 .text._mon_putc
                0x9d01f6ac       0xd0 ../../pic32/compiler/pic32-tools/bin/../lib/gcc/pic32mx/4.5.2/../../../../pic32mx/lib\libpic32.a(_mon_putc.o)
                0x9d01f6ac                _mon_putc

.text.sinf      0x9d01f77c       0xcc
 .text.sinf     0x9d01f77c       0xcc ../../pic32/compiler/pic32-tools/bin/../lib/gcc/pic32mx/4.5.2/../../../../pic32mx/lib\libm.a(lib_a-sf_sin.o)
                0x9d01f77c                sinf

.rodata.__mprec_tens.__mprec_tens
                0x9d01f848       0xc8
 .rodata.__mprec_tens.__mprec_tens
                0x9d01f848       0xc8 ../../pic32/compiler/pic32-tools/bin/../lib/gcc/pic32mx/4.5.2/../../../../pic32mx/lib\libc.a(lib_a-mprec.o)
                0x9d01f848                __mprec_tens

.text.cosf      0x9d01f910       0xc4
 .text.cosf     0x9d01f910       0xc4 ../../pic32/compiler/pic32-tools/bin/../lib/gcc/pic32mx/4.5.2/../../../../pic32mx/lib\libm.a(lib_a-sf_cos.o)
                0x9d01f910                cosf

.text._sbrk     0x9d01f9d4       0xc4
 .text._sbrk    0x9d01f9d4       0xc4 ../../pic32/compiler/pic32-tools/bin/../lib/gcc/pic32mx/4.5.2/../../../../pic32mx/lib\libpic32.a(sbrk.o)
                0x9d01f9d4                _sbrk

.text           0x9d01fa98       0xb8
 .text          0x9d01fa98       0xb8 ../../pic32/compiler/pic32-tools/bin/../lib/gcc/pic32mx/4.5.2\libgcc.a(extendsfdf2.o)
                0x9d01fa98                __extendsfdf2

.text.__lo0bits
                0x9d01fb50       0xb8
 .text.__lo0bits
                0x9d01fb50       0xb8 ../../pic32/compiler/pic32-tools/bin/../lib/gcc/pic32mx/4.5.2/../../../../pic32mx/lib\libc.a(lib_a-mprec.o)
                0x9d01fb50                __lo0bits

.text._raise_r  0x9d01fc08       0xb4
 .text._raise_r
                0x9d01fc08       0xb4 ../../pic32/compiler/pic32-tools/bin/../lib/gcc/pic32mx/4.5.2/../../../../pic32mx/lib\libc.a(lib_a-signal.o)
                0x9d01fc08                _raise_r

.text._Balloc   0x9d01fcbc       0xac
 .text._Balloc  0x9d01fcbc       0xac ../../pic32/compiler/pic32-tools/bin/../lib/gcc/pic32mx/4.5.2/../../../../pic32mx/lib\libc.a(lib_a-mprec.o)
                0x9d01fcbc                _Balloc

.text._calloc_r
                0x9d01fd68       0xa4
 .text._calloc_r
                0x9d01fd68       0xa4 ../../pic32/compiler/pic32-tools/bin/../lib/gcc/pic32mx/4.5.2/../../../../pic32mx/lib\libc.a(lib_a-callocr.o)
                0x9d01fd68                _calloc_r

.text._fwalk    0x9d01fe0c       0x9c
 .text._fwalk   0x9d01fe0c       0x9c ../../pic32/compiler/pic32-tools/bin/../lib/gcc/pic32mx/4.5.2/../../../../pic32mx/lib\libc.a(lib_a-fwalk.o)
                0x9d01fe0c                _fwalk

.text._wcrtomb_r
                0x9d01fea8       0x98
 .text._wcrtomb_r
                0x9d01fea8       0x98 ../../pic32/compiler/pic32-tools/bin/../lib/gcc/pic32mx/4.5.2/../../../../pic32mx/lib\libc.a(lib_a-wcrtomb.o)
                0x9d01fea8                _wcrtomb_r

.text.write     0x9d01ff40       0x94
 .text.write    0x9d01ff40       0x94 ../../pic32/compiler/pic32-tools/bin/../lib/gcc/pic32mx/4.5.2/../../../../pic32mx/lib\libpic32.a(write.o)
                0x9d01ff40                write

.text.tan       0x9d01ffd4       0x90
 .text.tan      0x9d01ffd4       0x90 ../../pic32/compiler/pic32-tools/bin/../lib/gcc/pic32mx/4.5.2/../../../../pic32mx/lib\libm.a(lib_a-s_tan.o)
                0x9d01ffd4                tan

.rodata         0x9d020068       0x88
 .rodata        0x9d020068       0x88 ../../pic32/compiler/pic32-tools/bin/../lib/gcc/pic32mx/4.5.2/../../../../pic32mx/lib\libm.a(lib_a-k_tan.o)

.text.__fpclassifyd
                0x9d0200f0       0x84
 .text.__fpclassifyd
                0x9d0200f0       0x84 ../../pic32/compiler/pic32-tools/bin/../lib/gcc/pic32mx/4.5.2/../../../../pic32mx/lib\libc.a(lib_a-s_fpclassify.o)
                0x9d0200f0                __fpclassifyd

.rodata.npio2_hw.npio2_hw
                0x9d020174      0x100
 .rodata.npio2_hw.npio2_hw
                0x9d020174       0x80 ../../pic32/compiler/pic32-tools/bin/../lib/gcc/pic32mx/4.5.2/../../../../pic32mx/lib\libm.a(lib_a-ef_rem_pio2.o)
 .rodata.npio2_hw.npio2_hw
                0x9d0201f4       0x80 ../../pic32/compiler/pic32-tools/bin/../lib/gcc/pic32mx/4.5.2/../../../../pic32mx/lib\libm.a(lib_a-e_rem_pio2.o)

.rodata         0x9d020274       0x7c
 .rodata        0x9d020274       0x7c obj/maze.o

.text.__swrite  0x9d0202f0       0x7c
 .text.__swrite
                0x9d0202f0       0x7c ../../pic32/compiler/pic32-tools/bin/../lib/gcc/pic32mx/4.5.2/../../../../pic32mx/lib\libc.a(lib_a-stdio.o)
                0x9d0202f0                __swrite

.text           0x9d02036c      0x168
 .text          0x9d02036c       0x78 ../../pic32/compiler/pic32-tools/bin/../lib/gcc/pic32mx/4.5.2\libgcc.a(eqdf2.o)
                0x9d02036c                __nedf2
                0x9d02036c                __eqdf2
 .text          0x9d0203e4       0x78 ../../pic32/compiler/pic32-tools/bin/../lib/gcc/pic32mx/4.5.2\libgcc.a(fixdfsi.o)
                0x9d0203e4                __fixdfsi
 .text          0x9d02045c       0x78 ../../pic32/compiler/pic32-tools/bin/../lib/gcc/pic32mx/4.5.2\libgcc.a(floatsidf.o)
                0x9d02045c                __floatsidf

.text.memmove   0x9d0204d4       0x78
 .text.memmove  0x9d0204d4       0x78 ../../pic32/compiler/pic32-tools/bin/../lib/gcc/pic32mx/4.5.2/../../../../pic32mx/lib\libc.a(lib_a-memmove.o)
                0x9d0204d4                memmove

.text.__hi0bits
                0x9d02054c       0x78
 .text.__hi0bits
                0x9d02054c       0x78 ../../pic32/compiler/pic32-tools/bin/../lib/gcc/pic32mx/4.5.2/../../../../pic32mx/lib\libc.a(lib_a-mprec.o)
                0x9d02054c                __hi0bits

.text           0x9d0205c4      0x13c
 .text          0x9d0205c4       0x6c ../../pic32/compiler/pic32-tools/bin/../lib/gcc/pic32mx/4.5.2\libgcc.a(floatunsidf.o)
                0x9d0205c4                __floatunsidf
 .text          0x9d020630       0x68 ../../pic32/compiler/pic32-tools/bin/../lib/gcc/pic32mx/4.5.2\libgcc.a(eqsf2.o)
                0x9d020630                __eqsf2
                0x9d020630                __nesf2
 .text          0x9d020698       0x68 ../../pic32/compiler/pic32-tools/bin/../lib/gcc/pic32mx/4.5.2\libgcc.a(fixsfsi.o)
                0x9d020698                __fixsfsi

.text.__mcmp    0x9d020700       0x68
 .text.__mcmp   0x9d020700       0x68 ../../pic32/compiler/pic32-tools/bin/../lib/gcc/pic32mx/4.5.2/../../../../pic32mx/lib\libc.a(lib_a-mprec.o)
                0x9d020700                __mcmp

.rodata         0x9d020768       0x60
 .rodata        0x9d020768       0x60 ../../pic32/compiler/pic32-tools/bin/../lib/gcc/pic32mx/4.5.2/../../../../pic32mx/lib\libc.a(lib_a-dtoa.o)

.text.__assert_func
                0x9d0207c8       0x58
 .text.__assert_func
                0x9d0207c8       0x58 ../../pic32/compiler/pic32-tools/bin/../lib/gcc/pic32mx/4.5.2/../../../../pic32mx/lib\libc.a(lib_a-assert.o)
                0x9d0207c8                __assert_func

.text.__sseek   0x9d020820       0x50
 .text.__sseek  0x9d020820       0x50 ../../pic32/compiler/pic32-tools/bin/../lib/gcc/pic32mx/4.5.2/../../../../pic32mx/lib\libc.a(lib_a-stdio.o)
                0x9d020820                __sseek

.text.sbrk      0x9d020870       0x50
 .text.sbrk     0x9d020870       0x50 ../../pic32/compiler/pic32-tools/bin/../lib/gcc/pic32mx/4.5.2/../../../../pic32mx/lib\libpic32.a(sbrk.o)
                0x9d020870                sbrk

.text.__sread   0x9d0208c0       0x4c
 .text.__sread  0x9d0208c0       0x4c ../../pic32/compiler/pic32-tools/bin/../lib/gcc/pic32mx/4.5.2/../../../../pic32mx/lib\libc.a(lib_a-stdio.o)
                0x9d0208c0                __sread

.text._write_r  0x9d02090c       0x4c
 .text._write_r
                0x9d02090c       0x4c ../../pic32/compiler/pic32-tools/bin/../lib/gcc/pic32mx/4.5.2/../../../../pic32mx/lib\libc.a(lib_a-writer.o)
                0x9d02090c                _write_r

.text._lseek_r  0x9d020958       0x4c
 .text._lseek_r
                0x9d020958       0x4c ../../pic32/compiler/pic32-tools/bin/../lib/gcc/pic32mx/4.5.2/../../../../pic32mx/lib\libc.a(lib_a-lseekr.o)
                0x9d020958                _lseek_r

.text._read_r   0x9d0209a4       0x4c
 .text._read_r  0x9d0209a4       0x4c ../../pic32/compiler/pic32-tools/bin/../lib/gcc/pic32mx/4.5.2/../../../../pic32mx/lib\libc.a(lib_a-readr.o)
                0x9d0209a4                _read_r

.rodata         0x9d0209f0       0x90
 .rodata        0x9d0209f0       0x48 ../../pic32/compiler/pic32-tools/bin/../lib/gcc/pic32mx/4.5.2/../../../../pic32mx/lib\libm.a(lib_a-e_rem_pio2.o)
 .rodata        0x9d020a38       0x48 ../../pic32/compiler/pic32-tools/bin/../lib/gcc/pic32mx/4.5.2/../../../../pic32mx/lib\libm.a(lib_a-k_cos.o)

.text._kill_r   0x9d020a80       0x48
 .text._kill_r  0x9d020a80       0x48 ../../pic32/compiler/pic32-tools/bin/../lib/gcc/pic32mx/4.5.2/../../../../pic32mx/lib\libc.a(lib_a-signalr.o)
                0x9d020a80                _kill_r

.text._fstat_r  0x9d020ac8       0x48
 .text._fstat_r
                0x9d020ac8       0x48 ../../pic32/compiler/pic32-tools/bin/../lib/gcc/pic32mx/4.5.2/../../../../pic32mx/lib\libc.a(lib_a-fstatr.o)
                0x9d020ac8                _fstat_r

.text           0x9d020b10       0x44
 .text          0x9d020b10       0x44 ../../pic32/compiler/pic32-tools/bin/../lib/gcc/pic32mx/4.5.2/crtend.o

.rodata         0x9d020b54       0x44
 .rodata        0x9d020b54       0x44 ../../pic32/compiler/pic32-tools/bin/../lib/gcc/pic32mx/4.5.2/../../../../pic32mx/lib\libc.a(lib_a-assert.o)

.text._sbrk_r   0x9d020b98       0x44
 .text._sbrk_r  0x9d020b98       0x44 ../../pic32/compiler/pic32-tools/bin/../lib/gcc/pic32mx/4.5.2/../../../../pic32mx/lib\libc.a(lib_a-sbrkr.o)
                0x9d020b98                _sbrk_r

.text._close_r  0x9d020bdc       0x44
 .text._close_r
                0x9d020bdc       0x44 ../../pic32/compiler/pic32-tools/bin/../lib/gcc/pic32mx/4.5.2/../../../../pic32mx/lib\libc.a(lib_a-closer.o)
                0x9d020bdc                _close_r

.text._isatty_r
                0x9d020c20       0x44
 .text._isatty_r
                0x9d020c20       0x44 ../../pic32/compiler/pic32-tools/bin/../lib/gcc/pic32mx/4.5.2/../../../../pic32mx/lib\libc.a(lib_a-isattyr.o)
                0x9d020c20                _isatty_r

.text           0x9d020c64       0x44
 .text          0x9d020c64       0x44 ../../pic32/compiler/pic32-tools/bin/../lib/gcc/pic32mx/4.5.2/../../../../pic32mx/lib\libpic32.a(pic32_software_reset.o)
                0x9d020c64                __pic32_software_reset

.rodata.PIo2.PIo2
                0x9d020ca8       0x40
 .rodata.PIo2.PIo2
                0x9d020ca8       0x40 ../../pic32/compiler/pic32-tools/bin/../lib/gcc/pic32mx/4.5.2/../../../../pic32mx/lib\libm.a(lib_a-k_rem_pio2.o)

.rodata         0x9d020ce8       0x3c
 .rodata        0x9d020ce8       0x3c ../../pic32/compiler/pic32-tools/bin/../lib/gcc/pic32mx/4.5.2/../../../../pic32mx/lib\libc.a(lib_a-vfprintf.o)

.rodata         0x9d020d28       0x38
 .rodata        0x9d020d28       0x38 ../../pic32/compiler/pic32-tools/bin/../lib/gcc/pic32mx/4.5.2/../../../../pic32mx/lib\libm.a(lib_a-k_sin.o)

.text.fiprintf  0x9d020d60       0x38
 .text.fiprintf
                0x9d020d60       0x38 ../../pic32/compiler/pic32-tools/bin/../lib/gcc/pic32mx/4.5.2/../../../../pic32mx/lib\libc.a(lib_a-fiprintf.o)
                0x9d020d60                fiprintf

.text.printf    0x9d020d98       0x38
 .text.printf   0x9d020d98       0x38 ../../pic32/compiler/pic32-tools/bin/../lib/gcc/pic32mx/4.5.2/../../../../pic32mx/lib\libc.a(lib_a-printf.o)
                0x9d020d98                printf

.text._bootstrap_exception_handler
                0x9d020dd0       0x38
 .text._bootstrap_exception_handler
                0x9d020dd0       0x38 ../../pic32/compiler/pic32-tools/bin/../lib/gcc/pic32mx/4.5.2/../../../../pic32mx/lib\libpic32.a(default-bootstrap-exception-handler.o)
                0x9d020dd0                _bootstrap_exception_handler

.text.main_entry
                0x9d020e08       0x34
 .text.main_entry
                0x9d020e08       0x34 obj/crt0.o

.text.__i2b     0x9d020e3c       0x34
 .text.__i2b    0x9d020e3c       0x34 ../../pic32/compiler/pic32-tools/bin/../lib/gcc/pic32mx/4.5.2/../../../../pic32mx/lib\libc.a(lib_a-mprec.o)
                0x9d020e3c                __i2b

.text.__ascii_wctomb
                0x9d020e70       0x34
 .text.__ascii_wctomb
                0x9d020e70       0x34 ../../pic32/compiler/pic32-tools/bin/../lib/gcc/pic32mx/4.5.2/../../../../pic32mx/lib\libc.a(lib_a-wctomb_r.o)
                0x9d020e70                __ascii_wctomb

.rodata         0x9d020ea8       0x60
 .rodata        0x9d020ea8       0x30 obj/newmain.o
 .rodata        0x9d020ed8       0x30 ../../pic32/compiler/pic32-tools/bin/../lib/gcc/pic32mx/4.5.2/../../../../pic32mx/lib\libm.a(lib_a-k_rem_pio2.o)

.text.memchr    0x9d020f08       0x30
 .text.memchr   0x9d020f08       0x30 ../../pic32/compiler/pic32-tools/bin/../lib/gcc/pic32mx/4.5.2/../../../../pic32mx/lib\libc.a(lib_a-memchr.o)
                0x9d020f08                memchr

.text.memcpy    0x9d020f38       0x30
 .text.memcpy   0x9d020f38       0x30 ../../pic32/compiler/pic32-tools/bin/../lib/gcc/pic32mx/4.5.2/../../../../pic32mx/lib\libc.a(lib_a-memcpy.o)
                0x9d020f38                memcpy

.vector_default
                0x9d020f68       0x30
 .vector_default
                0x9d020f68       0x30 ../../pic32/compiler/pic32-tools/bin/../lib/gcc/pic32mx/4.5.2/../../../../pic32mx/lib\libpic32.a(defaultinterrupt.o)
                0x9d020f68                _DefaultInterrupt

.rodata.PIo2.PIo2
                0x9d020f98       0x2c
 .rodata.PIo2.PIo2
                0x9d020f98       0x2c ../../pic32/compiler/pic32-tools/bin/../lib/gcc/pic32mx/4.5.2/../../../../pic32mx/lib\libm.a(lib_a-kf_rem_pio2.o)

.text._Bfree    0x9d020fc4       0x2c
 .text._Bfree   0x9d020fc4       0x2c ../../pic32/compiler/pic32-tools/bin/../lib/gcc/pic32mx/4.5.2/../../../../pic32mx/lib\libc.a(lib_a-mprec.o)
                0x9d020fc4                _Bfree

.text._stub_sbd_memlayout
                0x9d020ff0       0x2c
 .text._stub_sbd_memlayout
                0x9d020ff0       0x2c ../../pic32/compiler/pic32-tools/bin/../lib/gcc/pic32mx/4.5.2/../../../../pic32mx/lib\libpic32.a(sbrk.o)
                0x9d020ff0                _sbd_memlayout
                0x9d020ff0                _stub_sbd_memlayout

.rodata         0x9d021020       0x50
 .rodata        0x9d021020       0x28 obj/matrix4.o
 .rodata        0x9d021048       0x28 ../../pic32/compiler/pic32-tools/bin/../lib/gcc/pic32mx/4.5.2/../../../../pic32mx/lib\libc.a(lib_a-vfiprintf.o)

.text.memset    0x9d021070       0x28
 .text.memset   0x9d021070       0x28 ../../pic32/compiler/pic32-tools/bin/../lib/gcc/pic32mx/4.5.2/../../../../pic32mx/lib\libc.a(lib_a-memset.o)
                0x9d021070                memset

.rodata.__mprec_bigtens.__mprec_bigtens
                0x9d021098       0x28
 .rodata.__mprec_bigtens.__mprec_bigtens
                0x9d021098       0x28 ../../pic32/compiler/pic32-tools/bin/../lib/gcc/pic32mx/4.5.2/../../../../pic32mx/lib\libc.a(lib_a-mprec.o)
                0x9d021098                __mprec_bigtens

.rodata         0x9d0210c0       0x84
 .rodata        0x9d0210c0       0x24 ../../pic32/compiler/pic32-tools/bin/../lib/gcc/pic32mx/4.5.2/../../../../pic32mx/lib\libm.a(lib_a-ef_rem_pio2.o)
 .rodata        0x9d0210e4       0x24 ../../pic32/compiler/pic32-tools/bin/../lib/gcc/pic32mx/4.5.2/../../../../pic32mx/lib\libm.a(lib_a-kf_cos.o)
 .rodata        0x9d021108       0x20 ../../pic32/compiler/pic32-tools/bin/../lib/gcc/pic32mx/4.5.2/../../../../pic32mx/lib\libm.a(lib_a-s_scalbn.o)
 .rodata        0x9d021128       0x1c ../../pic32/compiler/pic32-tools/bin/../lib/gcc/pic32mx/4.5.2/../../../../pic32mx/lib\libm.a(lib_a-kf_sin.o)

.text.copysign  0x9d021144       0x1c
 .text.copysign
                0x9d021144       0x1c ../../pic32/compiler/pic32-tools/bin/../lib/gcc/pic32mx/4.5.2/../../../../pic32mx/lib\libm.a(lib_a-s_copysign.o)
                0x9d021144                copysign

.text.INTRestoreInterrupts
                0x9d021160       0x1c
 .text.INTRestoreInterrupts
                0x9d021160       0x1c ../../pic32/compiler/pic32-tools/bin/../lib/gcc/pic32mx/4.5.2/../../../../pic32mx/lib\libmchp_peripheral_32MX250F128B.a(int_restore_interrupts_lib.o)
                0x9d021160                INTRestoreInterrupts

.rodata         0x9d02117c       0x18
 .rodata        0x9d02117c       0x18 ../../pic32/compiler/pic32-tools/bin/../lib/gcc/pic32mx/4.5.2/../../../../pic32mx/lib\libm.a(lib_a-kf_rem_pio2.o)

.text.abort     0x9d021194       0x18
 .text.abort    0x9d021194       0x18 ../../pic32/compiler/pic32-tools/bin/../lib/gcc/pic32mx/4.5.2/../../../../pic32mx/lib\libc.a(lib_a-abort.o)
                0x9d021194                abort

.text           0x9d0211ac       0x30
 .text          0x9d0211ac       0x18 ../../pic32/compiler/pic32-tools/bin/../lib/gcc/pic32mx/4.5.2/../../../../pic32mx/lib\libc.a(lib_a-strlen.o)
                0x9d0211ac                strlen
 .text          0x9d0211c4       0x18 ../../pic32/compiler/pic32-tools/bin/../lib/gcc/pic32mx/4.5.2/../../../../pic32mx/lib\libpic32.a(default-nmi-handler.o)
                0x9d0211c4                _nmi_handler

.text.copysignf
                0x9d0211dc       0x14
 .text.copysignf
                0x9d0211dc       0x14 ../../pic32/compiler/pic32-tools/bin/../lib/gcc/pic32mx/4.5.2/../../../../pic32mx/lib\libm.a(lib_a-sf_copysign.o)
                0x9d0211dc                copysignf

.rodata         0x9d0211f0       0x14
 .rodata        0x9d0211f0       0x14 ../../pic32/compiler/pic32-tools/bin/../lib/gcc/pic32mx/4.5.2/../../../../pic32mx/lib\libc.a(lib_a-locale.o)

.text.fstat     0x9d021204       0x14
 .text.fstat    0x9d021204       0x14 ../../pic32/compiler/pic32-tools/bin/../lib/gcc/pic32mx/4.5.2/../../../../pic32mx/lib\libpic32.a(fstat.o)
                0x9d021204                fstat

.rodata.init_jk.init_jk
                0x9d021218       0x10
 .rodata.init_jk.init_jk
                0x9d021218       0x10 ../../pic32/compiler/pic32-tools/bin/../lib/gcc/pic32mx/4.5.2/../../../../pic32mx/lib\libm.a(lib_a-k_rem_pio2.o)

.text.fabs      0x9d021228       0x10
 .text.fabs     0x9d021228       0x10 ../../pic32/compiler/pic32-tools/bin/../lib/gcc/pic32mx/4.5.2/../../../../pic32mx/lib\libm.a(lib_a-s_fabs.o)
                0x9d021228                fabs

.rodata         0x9d021238       0x10
 .rodata        0x9d021238       0x10 ../../pic32/compiler/pic32-tools/bin/../lib/gcc/pic32mx/4.5.2/../../../../pic32mx/lib\libm.a(lib_a-sf_scalbn.o)

.rodata.zeroes.3920.zeroes
                0x9d021248       0x10
 .rodata.zeroes.3920.zeroes
                0x9d021248       0x10 ../../pic32/compiler/pic32-tools/bin/../lib/gcc/pic32mx/4.5.2/../../../../pic32mx/lib\libc.a(lib_a-vfiprintf.o)

.rodata.blanks.3919.blanks
                0x9d021258       0x10
 .rodata.blanks.3919.blanks
                0x9d021258       0x10 ../../pic32/compiler/pic32-tools/bin/../lib/gcc/pic32mx/4.5.2/../../../../pic32mx/lib\libc.a(lib_a-vfiprintf.o)

.rodata.zeroes.3977.zeroes
                0x9d021268       0x10
 .rodata.zeroes.3977.zeroes
                0x9d021268       0x10 ../../pic32/compiler/pic32-tools/bin/../lib/gcc/pic32mx/4.5.2/../../../../pic32mx/lib\libc.a(lib_a-vfprintf.o)

.rodata.blanks.3976.blanks
                0x9d021278       0x10
 .rodata.blanks.3976.blanks
                0x9d021278       0x10 ../../pic32/compiler/pic32-tools/bin/../lib/gcc/pic32mx/4.5.2/../../../../pic32mx/lib\libc.a(lib_a-vfprintf.o)

.rodata         0x9d021288        0xc
 .rodata        0x9d021288        0xc obj/vector2.o

.rodata.init_jk.init_jk
                0x9d021294        0xc
 .rodata.init_jk.init_jk
                0x9d021294        0xc ../../pic32/compiler/pic32-tools/bin/../lib/gcc/pic32mx/4.5.2/../../../../pic32mx/lib\libm.a(lib_a-kf_rem_pio2.o)

.text._cleanup_r
                0x9d0212a0        0xc
 .text._cleanup_r
                0x9d0212a0        0xc ../../pic32/compiler/pic32-tools/bin/../lib/gcc/pic32mx/4.5.2/../../../../pic32mx/lib\libc.a(lib_a-findfp.o)
                0x9d0212a0                _cleanup_r

.text.__locale_charset
                0x9d0212ac        0xc
 .text.__locale_charset
                0x9d0212ac        0xc ../../pic32/compiler/pic32-tools/bin/../lib/gcc/pic32mx/4.5.2/../../../../pic32mx/lib\libc.a(lib_a-locale.o)
                0x9d0212ac                __locale_charset

.text._localeconv_r
                0x9d0212b8        0xc
 .text._localeconv_r
                0x9d0212b8        0xc ../../pic32/compiler/pic32-tools/bin/../lib/gcc/pic32mx/4.5.2/../../../../pic32mx/lib\libc.a(lib_a-locale.o)
                0x9d0212b8                _localeconv_r

.rodata.p05.2491.p05
                0x9d0212c4        0xc
 .rodata.p05.2491.p05
                0x9d0212c4        0xc ../../pic32/compiler/pic32-tools/bin/../lib/gcc/pic32mx/4.5.2/../../../../pic32mx/lib\libc.a(lib_a-mprec.o)

.text.raise     0x9d0212d0        0xc
 .text.raise    0x9d0212d0        0xc ../../pic32/compiler/pic32-tools/bin/../lib/gcc/pic32mx/4.5.2/../../../../pic32mx/lib\libc.a(lib_a-signal.o)
                0x9d0212d0                raise

.text.fclose    0x9d0212dc        0xc
 .text.fclose   0x9d0212dc        0xc ../../pic32/compiler/pic32-tools/bin/../lib/gcc/pic32mx/4.5.2/../../../../pic32mx/lib\libc.a(lib_a-fclose.o)
                0x9d0212dc                fclose

.text.fabsf     0x9d0212e8        0x8
 .text.fabsf    0x9d0212e8        0x8 ../../pic32/compiler/pic32-tools/bin/../lib/gcc/pic32mx/4.5.2/../../../../pic32mx/lib\libm.a(lib_a-sf_fabs.o)
                0x9d0212e8                fabsf

.rodata         0x9d0212f0        0x8
 .rodata        0x9d0212f0        0x8 ../../pic32/compiler/pic32-tools/bin/../lib/gcc/pic32mx/4.5.2/../../../../pic32mx/lib\libm.a(lib_a-s_floor.o)

.text.__locale_mb_cur_max
                0x9d0212f8        0x8
 .text.__locale_mb_cur_max
                0x9d0212f8        0x8 ../../pic32/compiler/pic32-tools/bin/../lib/gcc/pic32mx/4.5.2/../../../../pic32mx/lib\libc.a(lib_a-locale.o)
                0x9d0212f8                __locale_mb_cur_max

.text.__malloc_lock
                0x9d021300        0x8
 .text.__malloc_lock
                0x9d021300        0x8 ../../pic32/compiler/pic32-tools/bin/../lib/gcc/pic32mx/4.5.2/../../../../pic32mx/lib\libc.a(lib_a-mlock.o)
                0x9d021300                __malloc_lock

.text.__malloc_unlock
                0x9d021308        0x8
 .text.__malloc_unlock
                0x9d021308        0x8 ../../pic32/compiler/pic32-tools/bin/../lib/gcc/pic32mx/4.5.2/../../../../pic32mx/lib\libc.a(lib_a-mlock.o)
                0x9d021308                __malloc_unlock

.text._getpid_r
                0x9d021310        0x8
 .text._getpid_r
                0x9d021310        0x8 ../../pic32/compiler/pic32-tools/bin/../lib/gcc/pic32mx/4.5.2/../../../../pic32mx/lib\libc.a(lib_a-signalr.o)
                0x9d021310                _getpid_r

.text.__sclose  0x9d021318        0x8
 .text.__sclose
                0x9d021318        0x8 ../../pic32/compiler/pic32-tools/bin/../lib/gcc/pic32mx/4.5.2/../../../../pic32mx/lib\libc.a(lib_a-stdio.o)
                0x9d021318                __sclose

.text._on_reset
                0x9d021320        0x8
 .text._on_reset
                0x9d021320        0x8 ../../pic32/compiler/pic32-tools/bin/../lib/gcc/pic32mx/4.5.2/../../../../pic32mx/lib\libpic32.a(default-on-reset.o)
                0x9d021320                _on_reset

.text._on_bootstrap
                0x9d021328        0x8
 .text._on_bootstrap
                0x9d021328        0x8 ../../pic32/compiler/pic32-tools/bin/../lib/gcc/pic32mx/4.5.2/../../../../pic32mx/lib\libpic32.a(default-on-bootstrap.o)
                0x9d021328                _on_bootstrap

.text._exit     0x9d021330        0x8
 .text._exit    0x9d021330        0x8 ../../pic32/compiler/pic32-tools/bin/../lib/gcc/pic32mx/4.5.2/../../../../pic32mx/lib\libpic32.a(_exit.o)
                0x9d021330                _exit

.text.isatty    0x9d021338        0x8
 .text.isatty   0x9d021338        0x8 ../../pic32/compiler/pic32-tools/bin/../lib/gcc/pic32mx/4.5.2/../../../../pic32mx/lib\libpic32.a(isatty.o)
                0x9d021338                isatty

.text.lseek     0x9d021340        0x8
 .text.lseek    0x9d021340        0x8 ../../pic32/compiler/pic32-tools/bin/../lib/gcc/pic32mx/4.5.2/../../../../pic32mx/lib\libpic32.a(lseek.o)
                0x9d021340                lseek

.text.close     0x9d021348        0x8
 .text.close    0x9d021348        0x8 ../../pic32/compiler/pic32-tools/bin/../lib/gcc/pic32mx/4.5.2/../../../../pic32mx/lib\libpic32.a(close.o)
                0x9d021348                close

.text.kill      0x9d021350        0x8
 .text.kill     0x9d021350        0x8 ../../pic32/compiler/pic32-tools/bin/../lib/gcc/pic32mx/4.5.2/../../../../pic32mx/lib\libpic32.a(kill.o)
                0x9d021350                kill

.text.getpid    0x9d021358        0x8
 .text.getpid   0x9d021358        0x8 ../../pic32/compiler/pic32-tools/bin/../lib/gcc/pic32mx/4.5.2/../../../../pic32mx/lib\libpic32.a(getpid.o)
                0x9d021358                getpid

.text.INTDisableInterrupts
                0x9d021360        0x8
 .text.INTDisableInterrupts
                0x9d021360        0x8 ../../pic32/compiler/pic32-tools/bin/../lib/gcc/pic32mx/4.5.2/../../../../pic32mx/lib\libmchp_peripheral_32MX250F128B.a(int_disable_interrupts_lib.o)
                0x9d021360                INTDisableInterrupts

.text.__errno   0x9d021368        0x8
 .text.__errno  0x9d021368        0x8 ../../pic32/compiler/pic32-tools/bin/../lib/gcc/pic32mx/4.5.2/../../../../pic32mx/lib\libc.a(lib_a-errno.o)
                0x9d021368                __errno

.rodata         0x9d020064        0x4
 .rodata        0x9d020064        0x4 ../../pic32/compiler/pic32-tools/bin/../lib/gcc/pic32mx/4.5.2/../../../../pic32mx/lib\libm.a(lib_a-sf_floor.o)

.rodata         0x9d020d24        0x4
 .rodata        0x9d020d24        0x4 ../../pic32/compiler/pic32-tools/bin/../lib/gcc/pic32mx/4.5.2/../../../../pic32mx/lib\libc.a(lib_a-impure.o)
